
bitslice:     file format elf64-x86-64


Disassembly of section .interp:

0000000000400238 <.interp>:
  400238:	2f                   	(bad)  
  400239:	6c                   	insb   (%dx),%es:(%rdi)
  40023a:	69 62 36 34 2f 6c 64 	imul   $0x646c2f34,0x36(%rdx),%esp
  400241:	2d 6c 69 6e 75       	sub    $0x756e696c,%eax
  400246:	78 2d                	js     400275 <_init-0x273>
  400248:	78 38                	js     400282 <_init-0x266>
  40024a:	36 2d 36 34 2e 73    	ss sub $0x732e3436,%eax
  400250:	6f                   	outsl  %ds:(%rsi),(%dx)
  400251:	2e 32 00             	xor    %cs:(%rax),%al

Disassembly of section .note.ABI-tag:

0000000000400254 <.note.ABI-tag>:
  400254:	04 00                	add    $0x0,%al
  400256:	00 00                	add    %al,(%rax)
  400258:	10 00                	adc    %al,(%rax)
  40025a:	00 00                	add    %al,(%rax)
  40025c:	01 00                	add    %eax,(%rax)
  40025e:	00 00                	add    %al,(%rax)
  400260:	47                   	rex.RXB
  400261:	4e 55                	rex.WRX push %rbp
  400263:	00 00                	add    %al,(%rax)
  400265:	00 00                	add    %al,(%rax)
  400267:	00 02                	add    %al,(%rdx)
  400269:	00 00                	add    %al,(%rax)
  40026b:	00 06                	add    %al,(%rsi)
  40026d:	00 00                	add    %al,(%rax)
  40026f:	00 20                	add    %ah,(%rax)
  400271:	00 00                	add    %al,(%rax)
	...

Disassembly of section .note.gnu.build-id:

0000000000400274 <.note.gnu.build-id>:
  400274:	04 00                	add    $0x0,%al
  400276:	00 00                	add    %al,(%rax)
  400278:	14 00                	adc    $0x0,%al
  40027a:	00 00                	add    %al,(%rax)
  40027c:	03 00                	add    (%rax),%eax
  40027e:	00 00                	add    %al,(%rax)
  400280:	47                   	rex.RXB
  400281:	4e 55                	rex.WRX push %rbp
  400283:	00 a2 55 7b 17 c6    	add    %ah,-0x39e884ab(%rdx)
  400289:	48 e7 de             	rex.W out %eax,$0xde
  40028c:	1c 1e                	sbb    $0x1e,%al
  40028e:	b5 be                	mov    $0xbe,%ch
  400290:	07                   	(bad)  
  400291:	39 3f                	cmp    %edi,(%rdi)
  400293:	dd 4c d4 9c          	fisttpll -0x64(%rsp,%rdx,8)
  400297:	87                   	.byte 0x87

Disassembly of section .gnu.hash:

0000000000400298 <.gnu.hash>:
  400298:	01 00                	add    %eax,(%rax)
  40029a:	00 00                	add    %al,(%rax)
  40029c:	01 00                	add    %eax,(%rax)
  40029e:	00 00                	add    %al,(%rax)
  4002a0:	01 00                	add    %eax,(%rax)
	...

Disassembly of section .dynsym:

00000000004002b8 <.dynsym>:
	...
  4002d0:	21 00                	and    %eax,(%rax)
  4002d2:	00 00                	add    %al,(%rax)
  4002d4:	12 00                	adc    (%rax),%al
	...
  4002e6:	00 00                	add    %al,(%rax)
  4002e8:	0b 00                	or     (%rax),%eax
  4002ea:	00 00                	add    %al,(%rax)
  4002ec:	12 00                	adc    (%rax),%al
	...
  4002fe:	00 00                	add    %al,(%rax)
  400300:	10 00                	adc    %al,(%rax)
  400302:	00 00                	add    %al,(%rax)
  400304:	12 00                	adc    (%rax),%al
	...
  400316:	00 00                	add    %al,(%rax)
  400318:	29 00                	sub    %eax,(%rax)
  40031a:	00 00                	add    %al,(%rax)
  40031c:	12 00                	adc    (%rax),%al
	...
  40032e:	00 00                	add    %al,(%rax)
  400330:	30 00                	xor    %al,(%rax)
  400332:	00 00                	add    %al,(%rax)
  400334:	12 00                	adc    (%rax),%al
	...
  400346:	00 00                	add    %al,(%rax)
  400348:	37                   	(bad)  
  400349:	00 00                	add    %al,(%rax)
  40034b:	00 12                	add    %dl,(%rdx)
	...
  40035d:	00 00                	add    %al,(%rax)
  40035f:	00 49 00             	add    %cl,0x0(%rcx)
  400362:	00 00                	add    %al,(%rax)
  400364:	20 00                	and    %al,(%rax)
	...

Disassembly of section .dynstr:

0000000000400378 <.dynstr>:
  400378:	00 6c 69 62          	add    %ch,0x62(%rcx,%rbp,2)
  40037c:	63 2e                	movslq (%rsi),%ebp
  40037e:	73 6f                	jae    4003ef <_init-0xf9>
  400380:	2e 36 00 70 75       	cs add %dh,%ss:0x75(%rax)
  400385:	74 73                	je     4003fa <_init-0xee>
  400387:	00 5f 5f             	add    %bl,0x5f(%rdi)
  40038a:	73 74                	jae    400400 <_init-0xe8>
  40038c:	61                   	(bad)  
  40038d:	63 6b 5f             	movslq 0x5f(%rbx),%ebp
  400390:	63 68 6b             	movslq 0x6b(%rax),%ebp
  400393:	5f                   	pop    %rdi
  400394:	66 61                	data16 (bad) 
  400396:	69 6c 00 70 75 74 63 	imul   $0x68637475,0x70(%rax,%rax,1),%ebp
  40039d:	68 
  40039e:	61                   	(bad)  
  40039f:	72 00                	jb     4003a1 <_init-0x147>
  4003a1:	70 72                	jo     400415 <_init-0xd3>
  4003a3:	69 6e 74 66 00 6d 65 	imul   $0x656d0066,0x74(%rsi),%ebp
  4003aa:	6d                   	insl   (%dx),%es:(%rdi)
  4003ab:	73 65                	jae    400412 <_init-0xd6>
  4003ad:	74 00                	je     4003af <_init-0x139>
  4003af:	5f                   	pop    %rdi
  4003b0:	5f                   	pop    %rdi
  4003b1:	6c                   	insb   (%dx),%es:(%rdi)
  4003b2:	69 62 63 5f 73 74 61 	imul   $0x6174735f,0x63(%rdx),%esp
  4003b9:	72 74                	jb     40042f <_init-0xb9>
  4003bb:	5f                   	pop    %rdi
  4003bc:	6d                   	insl   (%dx),%es:(%rdi)
  4003bd:	61                   	(bad)  
  4003be:	69 6e 00 5f 5f 67 6d 	imul   $0x6d675f5f,0x0(%rsi),%ebp
  4003c5:	6f                   	outsl  %ds:(%rsi),(%dx)
  4003c6:	6e                   	outsb  %ds:(%rsi),(%dx)
  4003c7:	5f                   	pop    %rdi
  4003c8:	73 74                	jae    40043e <_init-0xaa>
  4003ca:	61                   	(bad)  
  4003cb:	72 74                	jb     400441 <_init-0xa7>
  4003cd:	5f                   	pop    %rdi
  4003ce:	5f                   	pop    %rdi
  4003cf:	00 47 4c             	add    %al,0x4c(%rdi)
  4003d2:	49                   	rex.WB
  4003d3:	42                   	rex.X
  4003d4:	43 5f                	rex.XB pop %r15
  4003d6:	32 2e                	xor    (%rsi),%ch
  4003d8:	34 00                	xor    $0x0,%al
  4003da:	47                   	rex.RXB
  4003db:	4c                   	rex.WR
  4003dc:	49                   	rex.WB
  4003dd:	42                   	rex.X
  4003de:	43 5f                	rex.XB pop %r15
  4003e0:	32 2e                	xor    (%rsi),%ch
  4003e2:	32 2e                	xor    (%rsi),%ch
  4003e4:	35                   	.byte 0x35
	...

Disassembly of section .gnu.version:

00000000004003e6 <.gnu.version>:
  4003e6:	00 00                	add    %al,(%rax)
  4003e8:	02 00                	add    (%rax),%al
  4003ea:	02 00                	add    (%rax),%al
  4003ec:	03 00                	add    (%rax),%eax
  4003ee:	02 00                	add    (%rax),%al
  4003f0:	02 00                	add    (%rax),%al
  4003f2:	02 00                	add    (%rax),%al
	...

Disassembly of section .gnu.version_r:

00000000004003f8 <.gnu.version_r>:
  4003f8:	01 00                	add    %eax,(%rax)
  4003fa:	02 00                	add    (%rax),%al
  4003fc:	01 00                	add    %eax,(%rax)
  4003fe:	00 00                	add    %al,(%rax)
  400400:	10 00                	adc    %al,(%rax)
  400402:	00 00                	add    %al,(%rax)
  400404:	00 00                	add    %al,(%rax)
  400406:	00 00                	add    %al,(%rax)
  400408:	14 69                	adc    $0x69,%al
  40040a:	69 0d 00 00 03 00 58 	imul   $0x58,0x30000(%rip),%ecx        # 430414 <__FRAME_END__+0x29afc>
  400411:	00 00 00 
  400414:	10 00                	adc    %al,(%rax)
  400416:	00 00                	add    %al,(%rax)
  400418:	75 1a                	jne    400434 <_init-0xb4>
  40041a:	69 09 00 00 02 00    	imul   $0x20000,(%rcx),%ecx
  400420:	62                   	(bad)  
  400421:	00 00                	add    %al,(%rax)
  400423:	00 00                	add    %al,(%rax)
  400425:	00 00                	add    %al,(%rax)
	...

Disassembly of section .rela.dyn:

0000000000400428 <.rela.dyn>:
  400428:	f8                   	clc    
  400429:	6f                   	outsl  %ds:(%rsi),(%dx)
  40042a:	60                   	(bad)  
  40042b:	00 00                	add    %al,(%rax)
  40042d:	00 00                	add    %al,(%rax)
  40042f:	00 06                	add    %al,(%rsi)
  400431:	00 00                	add    %al,(%rax)
  400433:	00 07                	add    %al,(%rdi)
	...

Disassembly of section .rela.plt:

0000000000400440 <.rela.plt>:
  400440:	18 70 60             	sbb    %dh,0x60(%rax)
  400443:	00 00                	add    %al,(%rax)
  400445:	00 00                	add    %al,(%rax)
  400447:	00 07                	add    %al,(%rdi)
  400449:	00 00                	add    %al,(%rax)
  40044b:	00 01                	add    %al,(%rcx)
	...
  400455:	00 00                	add    %al,(%rax)
  400457:	00 20                	add    %ah,(%rax)
  400459:	70 60                	jo     4004bb <_init-0x2d>
  40045b:	00 00                	add    %al,(%rax)
  40045d:	00 00                	add    %al,(%rax)
  40045f:	00 07                	add    %al,(%rdi)
  400461:	00 00                	add    %al,(%rax)
  400463:	00 02                	add    %al,(%rdx)
	...
  40046d:	00 00                	add    %al,(%rax)
  40046f:	00 28                	add    %ch,(%rax)
  400471:	70 60                	jo     4004d3 <_init-0x15>
  400473:	00 00                	add    %al,(%rax)
  400475:	00 00                	add    %al,(%rax)
  400477:	00 07                	add    %al,(%rdi)
  400479:	00 00                	add    %al,(%rax)
  40047b:	00 03                	add    %al,(%rbx)
	...
  400485:	00 00                	add    %al,(%rax)
  400487:	00 30                	add    %dh,(%rax)
  400489:	70 60                	jo     4004eb <_init+0x3>
  40048b:	00 00                	add    %al,(%rax)
  40048d:	00 00                	add    %al,(%rax)
  40048f:	00 07                	add    %al,(%rdi)
  400491:	00 00                	add    %al,(%rax)
  400493:	00 04 00             	add    %al,(%rax,%rax,1)
	...
  40049e:	00 00                	add    %al,(%rax)
  4004a0:	38 70 60             	cmp    %dh,0x60(%rax)
  4004a3:	00 00                	add    %al,(%rax)
  4004a5:	00 00                	add    %al,(%rax)
  4004a7:	00 07                	add    %al,(%rdi)
  4004a9:	00 00                	add    %al,(%rax)
  4004ab:	00 05 00 00 00 00    	add    %al,0x0(%rip)        # 4004b1 <_init-0x37>
  4004b1:	00 00                	add    %al,(%rax)
  4004b3:	00 00                	add    %al,(%rax)
  4004b5:	00 00                	add    %al,(%rax)
  4004b7:	00 40 70             	add    %al,0x70(%rax)
  4004ba:	60                   	(bad)  
  4004bb:	00 00                	add    %al,(%rax)
  4004bd:	00 00                	add    %al,(%rax)
  4004bf:	00 07                	add    %al,(%rdi)
  4004c1:	00 00                	add    %al,(%rax)
  4004c3:	00 06                	add    %al,(%rsi)
	...
  4004cd:	00 00                	add    %al,(%rax)
  4004cf:	00 48 70             	add    %cl,0x70(%rax)
  4004d2:	60                   	(bad)  
  4004d3:	00 00                	add    %al,(%rax)
  4004d5:	00 00                	add    %al,(%rax)
  4004d7:	00 07                	add    %al,(%rdi)
  4004d9:	00 00                	add    %al,(%rax)
  4004db:	00 07                	add    %al,(%rdi)
	...

Disassembly of section .init:

00000000004004e8 <_init>:
  4004e8:	48 83 ec 08          	sub    $0x8,%rsp
  4004ec:	48 8b 05 05 6b 20 00 	mov    0x206b05(%rip),%rax        # 606ff8 <_DYNAMIC+0x1d0>
  4004f3:	48 85 c0             	test   %rax,%rax
  4004f6:	74 05                	je     4004fd <_init+0x15>
  4004f8:	e8 83 00 00 00       	callq  400580 <__gmon_start__@plt>
  4004fd:	48 83 c4 08          	add    $0x8,%rsp
  400501:	c3                   	retq   

Disassembly of section .plt:

0000000000400510 <putchar@plt-0x10>:
  400510:	ff 35 f2 6a 20 00    	pushq  0x206af2(%rip)        # 607008 <_GLOBAL_OFFSET_TABLE_+0x8>
  400516:	ff 25 f4 6a 20 00    	jmpq   *0x206af4(%rip)        # 607010 <_GLOBAL_OFFSET_TABLE_+0x10>
  40051c:	0f 1f 40 00          	nopl   0x0(%rax)

0000000000400520 <putchar@plt>:
  400520:	ff 25 f2 6a 20 00    	jmpq   *0x206af2(%rip)        # 607018 <_GLOBAL_OFFSET_TABLE_+0x18>
  400526:	68 00 00 00 00       	pushq  $0x0
  40052b:	e9 e0 ff ff ff       	jmpq   400510 <_init+0x28>

0000000000400530 <puts@plt>:
  400530:	ff 25 ea 6a 20 00    	jmpq   *0x206aea(%rip)        # 607020 <_GLOBAL_OFFSET_TABLE_+0x20>
  400536:	68 01 00 00 00       	pushq  $0x1
  40053b:	e9 d0 ff ff ff       	jmpq   400510 <_init+0x28>

0000000000400540 <__stack_chk_fail@plt>:
  400540:	ff 25 e2 6a 20 00    	jmpq   *0x206ae2(%rip)        # 607028 <_GLOBAL_OFFSET_TABLE_+0x28>
  400546:	68 02 00 00 00       	pushq  $0x2
  40054b:	e9 c0 ff ff ff       	jmpq   400510 <_init+0x28>

0000000000400550 <printf@plt>:
  400550:	ff 25 da 6a 20 00    	jmpq   *0x206ada(%rip)        # 607030 <_GLOBAL_OFFSET_TABLE_+0x30>
  400556:	68 03 00 00 00       	pushq  $0x3
  40055b:	e9 b0 ff ff ff       	jmpq   400510 <_init+0x28>

0000000000400560 <memset@plt>:
  400560:	ff 25 d2 6a 20 00    	jmpq   *0x206ad2(%rip)        # 607038 <_GLOBAL_OFFSET_TABLE_+0x38>
  400566:	68 04 00 00 00       	pushq  $0x4
  40056b:	e9 a0 ff ff ff       	jmpq   400510 <_init+0x28>

0000000000400570 <__libc_start_main@plt>:
  400570:	ff 25 ca 6a 20 00    	jmpq   *0x206aca(%rip)        # 607040 <_GLOBAL_OFFSET_TABLE_+0x40>
  400576:	68 05 00 00 00       	pushq  $0x5
  40057b:	e9 90 ff ff ff       	jmpq   400510 <_init+0x28>

0000000000400580 <__gmon_start__@plt>:
  400580:	ff 25 c2 6a 20 00    	jmpq   *0x206ac2(%rip)        # 607048 <_GLOBAL_OFFSET_TABLE_+0x48>
  400586:	68 06 00 00 00       	pushq  $0x6
  40058b:	e9 80 ff ff ff       	jmpq   400510 <_init+0x28>

Disassembly of section .text:

0000000000400590 <_start>:
  400590:	31 ed                	xor    %ebp,%ebp
  400592:	49 89 d1             	mov    %rdx,%r9
  400595:	5e                   	pop    %rsi
  400596:	48 89 e2             	mov    %rsp,%rdx
  400599:	48 83 e4 f0          	and    $0xfffffffffffffff0,%rsp
  40059d:	50                   	push   %rax
  40059e:	54                   	push   %rsp
  40059f:	49 c7 c0 d0 63 40 00 	mov    $0x4063d0,%r8
  4005a6:	48 c7 c1 60 63 40 00 	mov    $0x406360,%rcx
  4005ad:	48 c7 c7 49 63 40 00 	mov    $0x406349,%rdi
  4005b4:	e8 b7 ff ff ff       	callq  400570 <__libc_start_main@plt>
  4005b9:	f4                   	hlt    
  4005ba:	66 0f 1f 44 00 00    	nopw   0x0(%rax,%rax,1)

00000000004005c0 <deregister_tm_clones>:
  4005c0:	b8 c7 74 60 00       	mov    $0x6074c7,%eax
  4005c5:	55                   	push   %rbp
  4005c6:	48 2d c0 74 60 00    	sub    $0x6074c0,%rax
  4005cc:	48 83 f8 0e          	cmp    $0xe,%rax
  4005d0:	48 89 e5             	mov    %rsp,%rbp
  4005d3:	76 1b                	jbe    4005f0 <deregister_tm_clones+0x30>
  4005d5:	b8 00 00 00 00       	mov    $0x0,%eax
  4005da:	48 85 c0             	test   %rax,%rax
  4005dd:	74 11                	je     4005f0 <deregister_tm_clones+0x30>
  4005df:	5d                   	pop    %rbp
  4005e0:	bf c0 74 60 00       	mov    $0x6074c0,%edi
  4005e5:	ff e0                	jmpq   *%rax
  4005e7:	66 0f 1f 84 00 00 00 	nopw   0x0(%rax,%rax,1)
  4005ee:	00 00 
  4005f0:	5d                   	pop    %rbp
  4005f1:	c3                   	retq   
  4005f2:	0f 1f 40 00          	nopl   0x0(%rax)
  4005f6:	66 2e 0f 1f 84 00 00 	nopw   %cs:0x0(%rax,%rax,1)
  4005fd:	00 00 00 

0000000000400600 <register_tm_clones>:
  400600:	be c0 74 60 00       	mov    $0x6074c0,%esi
  400605:	55                   	push   %rbp
  400606:	48 81 ee c0 74 60 00 	sub    $0x6074c0,%rsi
  40060d:	48 c1 fe 03          	sar    $0x3,%rsi
  400611:	48 89 e5             	mov    %rsp,%rbp
  400614:	48 89 f0             	mov    %rsi,%rax
  400617:	48 c1 e8 3f          	shr    $0x3f,%rax
  40061b:	48 01 c6             	add    %rax,%rsi
  40061e:	48 d1 fe             	sar    %rsi
  400621:	74 15                	je     400638 <register_tm_clones+0x38>
  400623:	b8 00 00 00 00       	mov    $0x0,%eax
  400628:	48 85 c0             	test   %rax,%rax
  40062b:	74 0b                	je     400638 <register_tm_clones+0x38>
  40062d:	5d                   	pop    %rbp
  40062e:	bf c0 74 60 00       	mov    $0x6074c0,%edi
  400633:	ff e0                	jmpq   *%rax
  400635:	0f 1f 00             	nopl   (%rax)
  400638:	5d                   	pop    %rbp
  400639:	c3                   	retq   
  40063a:	66 0f 1f 44 00 00    	nopw   0x0(%rax,%rax,1)

0000000000400640 <__do_global_dtors_aux>:
  400640:	80 3d 79 6e 20 00 00 	cmpb   $0x0,0x206e79(%rip)        # 6074c0 <__TMC_END__>
  400647:	75 11                	jne    40065a <__do_global_dtors_aux+0x1a>
  400649:	55                   	push   %rbp
  40064a:	48 89 e5             	mov    %rsp,%rbp
  40064d:	e8 6e ff ff ff       	callq  4005c0 <deregister_tm_clones>
  400652:	5d                   	pop    %rbp
  400653:	c6 05 66 6e 20 00 01 	movb   $0x1,0x206e66(%rip)        # 6074c0 <__TMC_END__>
  40065a:	f3 c3                	repz retq 
  40065c:	0f 1f 40 00          	nopl   0x0(%rax)

0000000000400660 <frame_dummy>:
  400660:	bf 20 6e 60 00       	mov    $0x606e20,%edi
  400665:	48 83 3f 00          	cmpq   $0x0,(%rdi)
  400669:	75 05                	jne    400670 <frame_dummy+0x10>
  40066b:	eb 93                	jmp    400600 <register_tm_clones>
  40066d:	0f 1f 00             	nopl   (%rax)
  400670:	b8 00 00 00 00       	mov    $0x0,%eax
  400675:	48 85 c0             	test   %rax,%rax
  400678:	74 f1                	je     40066b <frame_dummy+0xb>
  40067a:	55                   	push   %rbp
  40067b:	48 89 e5             	mov    %rsp,%rbp
  40067e:	ff d0                	callq  *%rax
  400680:	5d                   	pop    %rbp
  400681:	e9 7a ff ff ff       	jmpq   400600 <register_tm_clones>

0000000000400686 <bs_sbox_rev>:
  400686:	55                   	push   %rbp
  400687:	48 89 e5             	mov    %rsp,%rbp
  40068a:	48 81 ec 58 03 00 00 	sub    $0x358,%rsp
  400691:	48 89 bd 38 fc ff ff 	mov    %rdi,-0x3c8(%rbp)
  400698:	48 89 b5 30 fc ff ff 	mov    %rsi,-0x3d0(%rbp)
  40069f:	48 8b 85 30 fc ff ff 	mov    -0x3d0(%rbp),%rax
  4006a6:	48 8b 10             	mov    (%rax),%rdx
  4006a9:	48 8b 85 30 fc ff ff 	mov    -0x3d0(%rbp),%rax
  4006b0:	48 83 c0 18          	add    $0x18,%rax
  4006b4:	48 8b 00             	mov    (%rax),%rax
  4006b7:	48 31 d0             	xor    %rdx,%rax
  4006ba:	48 89 85 48 fc ff ff 	mov    %rax,-0x3b8(%rbp)
  4006c1:	48 8b 85 30 fc ff ff 	mov    -0x3d0(%rbp),%rax
  4006c8:	48 83 c0 08          	add    $0x8,%rax
  4006cc:	48 8b 10             	mov    (%rax),%rdx
  4006cf:	48 8b 85 30 fc ff ff 	mov    -0x3d0(%rbp),%rax
  4006d6:	48 83 c0 18          	add    $0x18,%rax
  4006da:	48 8b 00             	mov    (%rax),%rax
  4006dd:	48 31 d0             	xor    %rdx,%rax
  4006e0:	48 f7 d0             	not    %rax
  4006e3:	48 89 85 50 fc ff ff 	mov    %rax,-0x3b0(%rbp)
  4006ea:	48 8b 85 30 fc ff ff 	mov    -0x3d0(%rbp),%rax
  4006f1:	48 8b 10             	mov    (%rax),%rdx
  4006f4:	48 8b 85 30 fc ff ff 	mov    -0x3d0(%rbp),%rax
  4006fb:	48 83 c0 08          	add    $0x8,%rax
  4006ff:	48 8b 00             	mov    (%rax),%rax
  400702:	48 31 d0             	xor    %rdx,%rax
  400705:	48 f7 d0             	not    %rax
  400708:	48 89 85 58 fc ff ff 	mov    %rax,-0x3a8(%rbp)
  40070f:	48 8b 85 30 fc ff ff 	mov    -0x3d0(%rbp),%rax
  400716:	48 83 c0 18          	add    $0x18,%rax
  40071a:	48 8b 10             	mov    (%rax),%rdx
  40071d:	48 8b 85 30 fc ff ff 	mov    -0x3d0(%rbp),%rax
  400724:	48 83 c0 20          	add    $0x20,%rax
  400728:	48 8b 00             	mov    (%rax),%rax
  40072b:	48 31 d0             	xor    %rdx,%rax
  40072e:	48 89 85 60 fc ff ff 	mov    %rax,-0x3a0(%rbp)
  400735:	48 8b 85 30 fc ff ff 	mov    -0x3d0(%rbp),%rax
  40073c:	48 83 c0 20          	add    $0x20,%rax
  400740:	48 8b 10             	mov    (%rax),%rdx
  400743:	48 8b 85 30 fc ff ff 	mov    -0x3d0(%rbp),%rax
  40074a:	48 83 c0 38          	add    $0x38,%rax
  40074e:	48 8b 00             	mov    (%rax),%rax
  400751:	48 31 d0             	xor    %rdx,%rax
  400754:	48 f7 d0             	not    %rax
  400757:	48 89 85 68 fc ff ff 	mov    %rax,-0x398(%rbp)
  40075e:	48 8b 85 30 fc ff ff 	mov    -0x3d0(%rbp),%rax
  400765:	48 83 c0 30          	add    $0x30,%rax
  400769:	48 8b 10             	mov    (%rax),%rdx
  40076c:	48 8b 85 30 fc ff ff 	mov    -0x3d0(%rbp),%rax
  400773:	48 83 c0 38          	add    $0x38,%rax
  400777:	48 8b 00             	mov    (%rax),%rax
  40077a:	48 31 d0             	xor    %rdx,%rax
  40077d:	48 89 85 70 fc ff ff 	mov    %rax,-0x390(%rbp)
  400784:	48 8b 85 30 fc ff ff 	mov    -0x3d0(%rbp),%rax
  40078b:	48 83 c0 08          	add    $0x8,%rax
  40078f:	48 8b 00             	mov    (%rax),%rax
  400792:	48 33 85 48 fc ff ff 	xor    -0x3b8(%rbp),%rax
  400799:	48 f7 d0             	not    %rax
  40079c:	48 89 85 78 fc ff ff 	mov    %rax,-0x388(%rbp)
  4007a3:	48 8b 85 50 fc ff ff 	mov    -0x3b0(%rbp),%rax
  4007aa:	48 33 85 70 fc ff ff 	xor    -0x390(%rbp),%rax
  4007b1:	48 89 85 80 fc ff ff 	mov    %rax,-0x380(%rbp)
  4007b8:	48 8b 85 30 fc ff ff 	mov    -0x3d0(%rbp),%rax
  4007bf:	48 83 c0 38          	add    $0x38,%rax
  4007c3:	48 8b 00             	mov    (%rax),%rax
  4007c6:	48 33 85 60 fc ff ff 	xor    -0x3a0(%rbp),%rax
  4007cd:	48 f7 d0             	not    %rax
  4007d0:	48 89 85 88 fc ff ff 	mov    %rax,-0x378(%rbp)
  4007d7:	48 8b 85 58 fc ff ff 	mov    -0x3a8(%rbp),%rax
  4007de:	48 33 85 68 fc ff ff 	xor    -0x398(%rbp),%rax
  4007e5:	48 89 85 90 fc ff ff 	mov    %rax,-0x370(%rbp)
  4007ec:	48 8b 85 58 fc ff ff 	mov    -0x3a8(%rbp),%rax
  4007f3:	48 33 85 70 fc ff ff 	xor    -0x390(%rbp),%rax
  4007fa:	48 89 85 98 fc ff ff 	mov    %rax,-0x368(%rbp)
  400801:	48 8b 85 60 fc ff ff 	mov    -0x3a0(%rbp),%rax
  400808:	48 33 85 70 fc ff ff 	xor    -0x390(%rbp),%rax
  40080f:	48 89 85 a0 fc ff ff 	mov    %rax,-0x360(%rbp)
  400816:	48 8b 85 30 fc ff ff 	mov    -0x3d0(%rbp),%rax
  40081d:	48 83 c0 10          	add    $0x10,%rax
  400821:	48 8b 00             	mov    (%rax),%rax
  400824:	48 33 85 60 fc ff ff 	xor    -0x3a0(%rbp),%rax
  40082b:	48 f7 d0             	not    %rax
  40082e:	48 89 85 a8 fc ff ff 	mov    %rax,-0x358(%rbp)
  400835:	48 8b 85 30 fc ff ff 	mov    -0x3d0(%rbp),%rax
  40083c:	48 83 c0 08          	add    $0x8,%rax
  400840:	48 8b 10             	mov    (%rax),%rdx
  400843:	48 8b 85 30 fc ff ff 	mov    -0x3d0(%rbp),%rax
  40084a:	48 83 c0 30          	add    $0x30,%rax
  40084e:	48 8b 00             	mov    (%rax),%rax
  400851:	48 31 d0             	xor    %rdx,%rax
  400854:	48 89 85 b0 fc ff ff 	mov    %rax,-0x350(%rbp)
  40085b:	48 8b 85 30 fc ff ff 	mov    -0x3d0(%rbp),%rax
  400862:	48 83 c0 10          	add    $0x10,%rax
  400866:	48 8b 00             	mov    (%rax),%rax
  400869:	48 33 85 80 fc ff ff 	xor    -0x380(%rbp),%rax
  400870:	48 f7 d0             	not    %rax
  400873:	48 89 85 b8 fc ff ff 	mov    %rax,-0x348(%rbp)
  40087a:	48 8b 85 68 fc ff ff 	mov    -0x398(%rbp),%rax
  400881:	48 33 85 b0 fc ff ff 	xor    -0x350(%rbp),%rax
  400888:	48 89 85 c0 fc ff ff 	mov    %rax,-0x340(%rbp)
  40088f:	48 8b 85 30 fc ff ff 	mov    -0x3d0(%rbp),%rax
  400896:	48 83 c0 20          	add    $0x20,%rax
  40089a:	48 8b 00             	mov    (%rax),%rax
  40089d:	48 33 85 78 fc ff ff 	xor    -0x388(%rbp),%rax
  4008a4:	48 89 85 c8 fc ff ff 	mov    %rax,-0x338(%rbp)
  4008ab:	48 8b 85 30 fc ff ff 	mov    -0x3d0(%rbp),%rax
  4008b2:	48 83 c0 10          	add    $0x10,%rax
  4008b6:	48 8b 10             	mov    (%rax),%rdx
  4008b9:	48 8b 85 30 fc ff ff 	mov    -0x3d0(%rbp),%rax
  4008c0:	48 83 c0 28          	add    $0x28,%rax
  4008c4:	48 8b 00             	mov    (%rax),%rax
  4008c7:	48 31 d0             	xor    %rdx,%rax
  4008ca:	48 f7 d0             	not    %rax
  4008cd:	48 89 85 d0 fc ff ff 	mov    %rax,-0x330(%rbp)
  4008d4:	48 8b 85 30 fc ff ff 	mov    -0x3d0(%rbp),%rax
  4008db:	48 83 c0 28          	add    $0x28,%rax
  4008df:	48 8b 10             	mov    (%rax),%rdx
  4008e2:	48 8b 85 30 fc ff ff 	mov    -0x3d0(%rbp),%rax
  4008e9:	48 83 c0 30          	add    $0x30,%rax
  4008ed:	48 8b 00             	mov    (%rax),%rax
  4008f0:	48 31 d0             	xor    %rdx,%rax
  4008f3:	48 f7 d0             	not    %rax
  4008f6:	48 89 85 d8 fc ff ff 	mov    %rax,-0x328(%rbp)
  4008fd:	48 8b 85 30 fc ff ff 	mov    -0x3d0(%rbp),%rax
  400904:	48 83 c0 10          	add    $0x10,%rax
  400908:	48 8b 10             	mov    (%rax),%rdx
  40090b:	48 8b 85 30 fc ff ff 	mov    -0x3d0(%rbp),%rax
  400912:	48 83 c0 20          	add    $0x20,%rax
  400916:	48 8b 00             	mov    (%rax),%rax
  400919:	48 31 d0             	xor    %rdx,%rax
  40091c:	48 f7 d0             	not    %rax
  40091f:	48 89 85 e0 fc ff ff 	mov    %rax,-0x320(%rbp)
  400926:	48 8b 85 30 fc ff ff 	mov    -0x3d0(%rbp),%rax
  40092d:	48 8b 00             	mov    (%rax),%rax
  400930:	48 33 85 d0 fc ff ff 	xor    -0x330(%rbp),%rax
  400937:	48 89 85 e8 fc ff ff 	mov    %rax,-0x318(%rbp)
  40093e:	48 8b 85 50 fc ff ff 	mov    -0x3b0(%rbp),%rax
  400945:	48 33 85 d0 fc ff ff 	xor    -0x330(%rbp),%rax
  40094c:	48 89 85 f0 fc ff ff 	mov    %rax,-0x310(%rbp)
  400953:	48 8b 85 b0 fc ff ff 	mov    -0x350(%rbp),%rax
  40095a:	48 33 85 e0 fc ff ff 	xor    -0x320(%rbp),%rax
  400961:	48 89 85 f8 fc ff ff 	mov    %rax,-0x308(%rbp)
  400968:	48 8b 85 60 fc ff ff 	mov    -0x3a0(%rbp),%rax
  40096f:	48 33 85 d8 fc ff ff 	xor    -0x328(%rbp),%rax
  400976:	48 89 85 00 fd ff ff 	mov    %rax,-0x300(%rbp)
  40097d:	48 8b 85 90 fc ff ff 	mov    -0x370(%rbp),%rax
  400984:	48 33 85 00 fd ff ff 	xor    -0x300(%rbp),%rax
  40098b:	48 89 85 08 fd ff ff 	mov    %rax,-0x2f8(%rbp)
  400992:	48 8b 85 90 fc ff ff 	mov    -0x370(%rbp),%rax
  400999:	48 33 85 d8 fc ff ff 	xor    -0x328(%rbp),%rax
  4009a0:	48 89 85 10 fd ff ff 	mov    %rax,-0x2f0(%rbp)
  4009a7:	48 8b 85 a0 fc ff ff 	mov    -0x360(%rbp),%rax
  4009ae:	48 33 85 f8 fc ff ff 	xor    -0x308(%rbp),%rax
  4009b5:	48 89 85 18 fd ff ff 	mov    %rax,-0x2e8(%rbp)
  4009bc:	48 8b 85 98 fc ff ff 	mov    -0x368(%rbp),%rax
  4009c3:	48 23 85 f0 fc ff ff 	and    -0x310(%rbp),%rax
  4009ca:	48 89 85 20 fd ff ff 	mov    %rax,-0x2e0(%rbp)
  4009d1:	48 8b 85 48 fc ff ff 	mov    -0x3b8(%rbp),%rax
  4009d8:	48 23 85 78 fc ff ff 	and    -0x388(%rbp),%rax
  4009df:	48 89 85 28 fd ff ff 	mov    %rax,-0x2d8(%rbp)
  4009e6:	48 8b 85 10 fd ff ff 	mov    -0x2f0(%rbp),%rax
  4009ed:	48 33 85 20 fd ff ff 	xor    -0x2e0(%rbp),%rax
  4009f4:	48 89 85 30 fd ff ff 	mov    %rax,-0x2d0(%rbp)
  4009fb:	48 8b 85 80 fc ff ff 	mov    -0x380(%rbp),%rax
  400a02:	48 23 85 e8 fc ff ff 	and    -0x318(%rbp),%rax
  400a09:	48 89 85 38 fd ff ff 	mov    %rax,-0x2c8(%rbp)
  400a10:	48 8b 85 38 fd ff ff 	mov    -0x2c8(%rbp),%rax
  400a17:	48 33 85 20 fd ff ff 	xor    -0x2e0(%rbp),%rax
  400a1e:	48 89 85 40 fd ff ff 	mov    %rax,-0x2c0(%rbp)
  400a25:	48 8b 85 a0 fc ff ff 	mov    -0x360(%rbp),%rax
  400a2c:	48 23 85 f8 fc ff ff 	and    -0x308(%rbp),%rax
  400a33:	48 89 85 48 fd ff ff 	mov    %rax,-0x2b8(%rbp)
  400a3a:	48 8b 85 50 fc ff ff 	mov    -0x3b0(%rbp),%rax
  400a41:	48 23 85 88 fc ff ff 	and    -0x378(%rbp),%rax
  400a48:	48 89 85 50 fd ff ff 	mov    %rax,-0x2b0(%rbp)
  400a4f:	48 8b 85 18 fd ff ff 	mov    -0x2e8(%rbp),%rax
  400a56:	48 33 85 48 fd ff ff 	xor    -0x2b8(%rbp),%rax
  400a5d:	48 89 85 58 fd ff ff 	mov    %rax,-0x2a8(%rbp)
  400a64:	48 8b 85 c0 fc ff ff 	mov    -0x340(%rbp),%rax
  400a6b:	48 23 85 b8 fc ff ff 	and    -0x348(%rbp),%rax
  400a72:	48 89 85 60 fd ff ff 	mov    %rax,-0x2a0(%rbp)
  400a79:	48 8b 85 60 fd ff ff 	mov    -0x2a0(%rbp),%rax
  400a80:	48 33 85 48 fd ff ff 	xor    -0x2b8(%rbp),%rax
  400a87:	48 89 85 68 fd ff ff 	mov    %rax,-0x298(%rbp)
  400a8e:	48 8b 85 60 fc ff ff 	mov    -0x3a0(%rbp),%rax
  400a95:	48 23 85 08 fd ff ff 	and    -0x2f8(%rbp),%rax
  400a9c:	48 89 85 70 fd ff ff 	mov    %rax,-0x290(%rbp)
  400aa3:	48 8b 85 c8 fc ff ff 	mov    -0x338(%rbp),%rax
  400aaa:	48 23 85 00 fd ff ff 	and    -0x300(%rbp),%rax
  400ab1:	48 89 85 78 fd ff ff 	mov    %rax,-0x288(%rbp)
  400ab8:	48 8b 85 78 fd ff ff 	mov    -0x288(%rbp),%rax
  400abf:	48 33 85 70 fd ff ff 	xor    -0x290(%rbp),%rax
  400ac6:	48 89 85 80 fd ff ff 	mov    %rax,-0x280(%rbp)
  400acd:	48 8b 85 58 fc ff ff 	mov    -0x3a8(%rbp),%rax
  400ad4:	48 23 85 90 fc ff ff 	and    -0x370(%rbp),%rax
  400adb:	48 89 85 88 fd ff ff 	mov    %rax,-0x278(%rbp)
  400ae2:	48 8b 85 88 fd ff ff 	mov    -0x278(%rbp),%rax
  400ae9:	48 33 85 70 fd ff ff 	xor    -0x290(%rbp),%rax
  400af0:	48 89 85 90 fd ff ff 	mov    %rax,-0x270(%rbp)
  400af7:	48 8b 85 30 fd ff ff 	mov    -0x2d0(%rbp),%rax
  400afe:	48 33 85 28 fd ff ff 	xor    -0x2d8(%rbp),%rax
  400b05:	48 89 85 98 fd ff ff 	mov    %rax,-0x268(%rbp)
  400b0c:	48 8b 85 40 fd ff ff 	mov    -0x2c0(%rbp),%rax
  400b13:	48 33 85 68 fc ff ff 	xor    -0x398(%rbp),%rax
  400b1a:	48 89 85 a0 fd ff ff 	mov    %rax,-0x260(%rbp)
  400b21:	48 8b 85 58 fd ff ff 	mov    -0x2a8(%rbp),%rax
  400b28:	48 33 85 50 fd ff ff 	xor    -0x2b0(%rbp),%rax
  400b2f:	48 89 85 a8 fd ff ff 	mov    %rax,-0x258(%rbp)
  400b36:	48 8b 85 68 fd ff ff 	mov    -0x298(%rbp),%rax
  400b3d:	48 33 85 90 fd ff ff 	xor    -0x270(%rbp),%rax
  400b44:	48 89 85 b0 fd ff ff 	mov    %rax,-0x250(%rbp)
  400b4b:	48 8b 85 98 fd ff ff 	mov    -0x268(%rbp),%rax
  400b52:	48 33 85 80 fd ff ff 	xor    -0x280(%rbp),%rax
  400b59:	48 89 85 b8 fd ff ff 	mov    %rax,-0x248(%rbp)
  400b60:	48 8b 85 a0 fd ff ff 	mov    -0x260(%rbp),%rax
  400b67:	48 33 85 90 fd ff ff 	xor    -0x270(%rbp),%rax
  400b6e:	48 89 85 c0 fd ff ff 	mov    %rax,-0x240(%rbp)
  400b75:	48 8b 85 a8 fd ff ff 	mov    -0x258(%rbp),%rax
  400b7c:	48 33 85 80 fd ff ff 	xor    -0x280(%rbp),%rax
  400b83:	48 89 85 c8 fd ff ff 	mov    %rax,-0x238(%rbp)
  400b8a:	48 8b 85 b0 fd ff ff 	mov    -0x250(%rbp),%rax
  400b91:	48 33 85 a8 fc ff ff 	xor    -0x358(%rbp),%rax
  400b98:	48 89 85 d0 fd ff ff 	mov    %rax,-0x230(%rbp)
  400b9f:	48 8b 85 c8 fd ff ff 	mov    -0x238(%rbp),%rax
  400ba6:	48 33 85 d0 fd ff ff 	xor    -0x230(%rbp),%rax
  400bad:	48 89 85 d8 fd ff ff 	mov    %rax,-0x228(%rbp)
  400bb4:	48 8b 85 c8 fd ff ff 	mov    -0x238(%rbp),%rax
  400bbb:	48 23 85 b8 fd ff ff 	and    -0x248(%rbp),%rax
  400bc2:	48 89 85 e0 fd ff ff 	mov    %rax,-0x220(%rbp)
  400bc9:	48 8b 85 c0 fd ff ff 	mov    -0x240(%rbp),%rax
  400bd0:	48 33 85 e0 fd ff ff 	xor    -0x220(%rbp),%rax
  400bd7:	48 89 85 e8 fd ff ff 	mov    %rax,-0x218(%rbp)
  400bde:	48 8b 85 b8 fd ff ff 	mov    -0x248(%rbp),%rax
  400be5:	48 33 85 c0 fd ff ff 	xor    -0x240(%rbp),%rax
  400bec:	48 89 85 f0 fd ff ff 	mov    %rax,-0x210(%rbp)
  400bf3:	48 8b 85 d0 fd ff ff 	mov    -0x230(%rbp),%rax
  400bfa:	48 33 85 e0 fd ff ff 	xor    -0x220(%rbp),%rax
  400c01:	48 89 85 f8 fd ff ff 	mov    %rax,-0x208(%rbp)
  400c08:	48 8b 85 f8 fd ff ff 	mov    -0x208(%rbp),%rax
  400c0f:	48 23 85 f0 fd ff ff 	and    -0x210(%rbp),%rax
  400c16:	48 89 85 00 fe ff ff 	mov    %rax,-0x200(%rbp)
  400c1d:	48 8b 85 e8 fd ff ff 	mov    -0x218(%rbp),%rax
  400c24:	48 23 85 d8 fd ff ff 	and    -0x228(%rbp),%rax
  400c2b:	48 89 85 08 fe ff ff 	mov    %rax,-0x1f8(%rbp)
  400c32:	48 8b 85 b8 fd ff ff 	mov    -0x248(%rbp),%rax
  400c39:	48 23 85 d0 fd ff ff 	and    -0x230(%rbp),%rax
  400c40:	48 89 85 10 fe ff ff 	mov    %rax,-0x1f0(%rbp)
  400c47:	48 8b 85 f0 fd ff ff 	mov    -0x210(%rbp),%rax
  400c4e:	48 23 85 10 fe ff ff 	and    -0x1f0(%rbp),%rax
  400c55:	48 89 85 18 fe ff ff 	mov    %rax,-0x1e8(%rbp)
  400c5c:	48 8b 85 f0 fd ff ff 	mov    -0x210(%rbp),%rax
  400c63:	48 33 85 e0 fd ff ff 	xor    -0x220(%rbp),%rax
  400c6a:	48 89 85 20 fe ff ff 	mov    %rax,-0x1e0(%rbp)
  400c71:	48 8b 85 c0 fd ff ff 	mov    -0x240(%rbp),%rax
  400c78:	48 23 85 c8 fd ff ff 	and    -0x238(%rbp),%rax
  400c7f:	48 89 85 28 fe ff ff 	mov    %rax,-0x1d8(%rbp)
  400c86:	48 8b 85 d8 fd ff ff 	mov    -0x228(%rbp),%rax
  400c8d:	48 23 85 28 fe ff ff 	and    -0x1d8(%rbp),%rax
  400c94:	48 89 85 30 fe ff ff 	mov    %rax,-0x1d0(%rbp)
  400c9b:	48 8b 85 d8 fd ff ff 	mov    -0x228(%rbp),%rax
  400ca2:	48 33 85 e0 fd ff ff 	xor    -0x220(%rbp),%rax
  400ca9:	48 89 85 38 fe ff ff 	mov    %rax,-0x1c8(%rbp)
  400cb0:	48 8b 85 c0 fd ff ff 	mov    -0x240(%rbp),%rax
  400cb7:	48 33 85 00 fe ff ff 	xor    -0x200(%rbp),%rax
  400cbe:	48 89 85 40 fe ff ff 	mov    %rax,-0x1c0(%rbp)
  400cc5:	48 8b 85 18 fe ff ff 	mov    -0x1e8(%rbp),%rax
  400ccc:	48 33 85 20 fe ff ff 	xor    -0x1e0(%rbp),%rax
  400cd3:	48 89 85 48 fe ff ff 	mov    %rax,-0x1b8(%rbp)
  400cda:	48 8b 85 d0 fd ff ff 	mov    -0x230(%rbp),%rax
  400ce1:	48 33 85 08 fe ff ff 	xor    -0x1f8(%rbp),%rax
  400ce8:	48 89 85 50 fe ff ff 	mov    %rax,-0x1b0(%rbp)
  400cef:	48 8b 85 30 fe ff ff 	mov    -0x1d0(%rbp),%rax
  400cf6:	48 33 85 38 fe ff ff 	xor    -0x1c8(%rbp),%rax
  400cfd:	48 89 85 58 fe ff ff 	mov    %rax,-0x1a8(%rbp)
  400d04:	48 8b 85 48 fe ff ff 	mov    -0x1b8(%rbp),%rax
  400d0b:	48 33 85 58 fe ff ff 	xor    -0x1a8(%rbp),%rax
  400d12:	48 89 85 60 fe ff ff 	mov    %rax,-0x1a0(%rbp)
  400d19:	48 8b 85 40 fe ff ff 	mov    -0x1c0(%rbp),%rax
  400d20:	48 33 85 50 fe ff ff 	xor    -0x1b0(%rbp),%rax
  400d27:	48 89 85 68 fe ff ff 	mov    %rax,-0x198(%rbp)
  400d2e:	48 8b 85 40 fe ff ff 	mov    -0x1c0(%rbp),%rax
  400d35:	48 33 85 48 fe ff ff 	xor    -0x1b8(%rbp),%rax
  400d3c:	48 89 85 70 fe ff ff 	mov    %rax,-0x190(%rbp)
  400d43:	48 8b 85 50 fe ff ff 	mov    -0x1b0(%rbp),%rax
  400d4a:	48 33 85 58 fe ff ff 	xor    -0x1a8(%rbp),%rax
  400d51:	48 89 85 78 fe ff ff 	mov    %rax,-0x188(%rbp)
  400d58:	48 8b 85 68 fe ff ff 	mov    -0x198(%rbp),%rax
  400d5f:	48 33 85 60 fe ff ff 	xor    -0x1a0(%rbp),%rax
  400d66:	48 89 85 80 fe ff ff 	mov    %rax,-0x180(%rbp)
  400d6d:	48 8b 85 78 fe ff ff 	mov    -0x188(%rbp),%rax
  400d74:	48 23 85 f0 fc ff ff 	and    -0x310(%rbp),%rax
  400d7b:	48 89 85 88 fe ff ff 	mov    %rax,-0x178(%rbp)
  400d82:	48 8b 85 58 fe ff ff 	mov    -0x1a8(%rbp),%rax
  400d89:	48 23 85 78 fc ff ff 	and    -0x388(%rbp),%rax
  400d90:	48 89 85 90 fe ff ff 	mov    %rax,-0x170(%rbp)
  400d97:	48 8b 85 50 fe ff ff 	mov    -0x1b0(%rbp),%rax
  400d9e:	48 23 85 e8 fc ff ff 	and    -0x318(%rbp),%rax
  400da5:	48 89 85 98 fe ff ff 	mov    %rax,-0x168(%rbp)
  400dac:	48 8b 85 70 fe ff ff 	mov    -0x190(%rbp),%rax
  400db3:	48 23 85 f8 fc ff ff 	and    -0x308(%rbp),%rax
  400dba:	48 89 85 a0 fe ff ff 	mov    %rax,-0x160(%rbp)
  400dc1:	48 8b 85 48 fe ff ff 	mov    -0x1b8(%rbp),%rax
  400dc8:	48 23 85 88 fc ff ff 	and    -0x378(%rbp),%rax
  400dcf:	48 89 85 a8 fe ff ff 	mov    %rax,-0x158(%rbp)
  400dd6:	48 8b 85 40 fe ff ff 	mov    -0x1c0(%rbp),%rax
  400ddd:	48 23 85 b8 fc ff ff 	and    -0x348(%rbp),%rax
  400de4:	48 89 85 b0 fe ff ff 	mov    %rax,-0x150(%rbp)
  400deb:	48 8b 85 68 fe ff ff 	mov    -0x198(%rbp),%rax
  400df2:	48 23 85 08 fd ff ff 	and    -0x2f8(%rbp),%rax
  400df9:	48 89 85 b8 fe ff ff 	mov    %rax,-0x148(%rbp)
  400e00:	48 8b 85 80 fe ff ff 	mov    -0x180(%rbp),%rax
  400e07:	48 23 85 00 fd ff ff 	and    -0x300(%rbp),%rax
  400e0e:	48 89 85 c0 fe ff ff 	mov    %rax,-0x140(%rbp)
  400e15:	48 8b 85 60 fe ff ff 	mov    -0x1a0(%rbp),%rax
  400e1c:	48 23 85 90 fc ff ff 	and    -0x370(%rbp),%rax
  400e23:	48 89 85 c8 fe ff ff 	mov    %rax,-0x138(%rbp)
  400e2a:	48 8b 85 78 fe ff ff 	mov    -0x188(%rbp),%rax
  400e31:	48 23 85 98 fc ff ff 	and    -0x368(%rbp),%rax
  400e38:	48 89 85 d0 fe ff ff 	mov    %rax,-0x130(%rbp)
  400e3f:	48 8b 85 58 fe ff ff 	mov    -0x1a8(%rbp),%rax
  400e46:	48 23 85 48 fc ff ff 	and    -0x3b8(%rbp),%rax
  400e4d:	48 89 85 d8 fe ff ff 	mov    %rax,-0x128(%rbp)
  400e54:	48 8b 85 50 fe ff ff 	mov    -0x1b0(%rbp),%rax
  400e5b:	48 23 85 80 fc ff ff 	and    -0x380(%rbp),%rax
  400e62:	48 89 85 e0 fe ff ff 	mov    %rax,-0x120(%rbp)
  400e69:	48 8b 85 70 fe ff ff 	mov    -0x190(%rbp),%rax
  400e70:	48 23 85 a0 fc ff ff 	and    -0x360(%rbp),%rax
  400e77:	48 89 85 e8 fe ff ff 	mov    %rax,-0x118(%rbp)
  400e7e:	48 8b 85 48 fe ff ff 	mov    -0x1b8(%rbp),%rax
  400e85:	48 23 85 50 fc ff ff 	and    -0x3b0(%rbp),%rax
  400e8c:	48 89 85 f0 fe ff ff 	mov    %rax,-0x110(%rbp)
  400e93:	48 8b 85 40 fe ff ff 	mov    -0x1c0(%rbp),%rax
  400e9a:	48 23 85 c0 fc ff ff 	and    -0x340(%rbp),%rax
  400ea1:	48 89 85 f8 fe ff ff 	mov    %rax,-0x108(%rbp)
  400ea8:	48 8b 85 68 fe ff ff 	mov    -0x198(%rbp),%rax
  400eaf:	48 23 85 60 fc ff ff 	and    -0x3a0(%rbp),%rax
  400eb6:	48 89 85 00 ff ff ff 	mov    %rax,-0x100(%rbp)
  400ebd:	48 8b 85 80 fe ff ff 	mov    -0x180(%rbp),%rax
  400ec4:	48 23 85 c8 fc ff ff 	and    -0x338(%rbp),%rax
  400ecb:	48 89 85 08 ff ff ff 	mov    %rax,-0xf8(%rbp)
  400ed2:	48 8b 85 60 fe ff ff 	mov    -0x1a0(%rbp),%rax
  400ed9:	48 23 85 58 fc ff ff 	and    -0x3a8(%rbp),%rax
  400ee0:	48 89 85 10 ff ff ff 	mov    %rax,-0xf0(%rbp)
  400ee7:	48 8b 85 b8 fe ff ff 	mov    -0x148(%rbp),%rax
  400eee:	48 33 85 00 ff ff ff 	xor    -0x100(%rbp),%rax
  400ef5:	48 89 85 18 ff ff ff 	mov    %rax,-0xe8(%rbp)
  400efc:	48 8b 85 e8 fe ff ff 	mov    -0x118(%rbp),%rax
  400f03:	48 33 85 f0 fe ff ff 	xor    -0x110(%rbp),%rax
  400f0a:	48 89 85 20 ff ff ff 	mov    %rax,-0xe0(%rbp)
  400f11:	48 8b 85 c8 fe ff ff 	mov    -0x138(%rbp),%rax
  400f18:	48 33 85 08 ff ff ff 	xor    -0xf8(%rbp),%rax
  400f1f:	48 89 85 28 ff ff ff 	mov    %rax,-0xd8(%rbp)
  400f26:	48 8b 85 90 fe ff ff 	mov    -0x170(%rbp),%rax
  400f2d:	48 33 85 a8 fe ff ff 	xor    -0x158(%rbp),%rax
  400f34:	48 89 85 30 ff ff ff 	mov    %rax,-0xd0(%rbp)
  400f3b:	48 8b 85 98 fe ff ff 	mov    -0x168(%rbp),%rax
  400f42:	48 33 85 d8 fe ff ff 	xor    -0x128(%rbp),%rax
  400f49:	48 89 85 38 ff ff ff 	mov    %rax,-0xc8(%rbp)
  400f50:	48 8b 85 88 fe ff ff 	mov    -0x178(%rbp),%rax
  400f57:	48 33 85 b0 fe ff ff 	xor    -0x150(%rbp),%rax
  400f5e:	48 89 85 40 ff ff ff 	mov    %rax,-0xc0(%rbp)
  400f65:	48 8b 85 a0 fe ff ff 	mov    -0x160(%rbp),%rax
  400f6c:	48 33 85 f8 fe ff ff 	xor    -0x108(%rbp),%rax
  400f73:	48 89 85 48 ff ff ff 	mov    %rax,-0xb8(%rbp)
  400f7a:	48 8b 85 18 ff ff ff 	mov    -0xe8(%rbp),%rax
  400f81:	48 33 85 20 ff ff ff 	xor    -0xe0(%rbp),%rax
  400f88:	48 89 85 50 ff ff ff 	mov    %rax,-0xb0(%rbp)
  400f8f:	48 8b 85 a8 fe ff ff 	mov    -0x158(%rbp),%rax
  400f96:	48 33 85 c0 fe ff ff 	xor    -0x140(%rbp),%rax
  400f9d:	48 89 85 58 ff ff ff 	mov    %rax,-0xa8(%rbp)
  400fa4:	48 8b 85 d0 fe ff ff 	mov    -0x130(%rbp),%rax
  400fab:	48 33 85 10 ff ff ff 	xor    -0xf0(%rbp),%rax
  400fb2:	48 89 85 60 ff ff ff 	mov    %rax,-0xa0(%rbp)
  400fb9:	48 8b 85 e0 fe ff ff 	mov    -0x120(%rbp),%rax
  400fc0:	48 33 85 38 ff ff ff 	xor    -0xc8(%rbp),%rax
  400fc7:	48 89 85 68 ff ff ff 	mov    %rax,-0x98(%rbp)
  400fce:	48 8b 85 18 ff ff ff 	mov    -0xe8(%rbp),%rax
  400fd5:	48 33 85 30 ff ff ff 	xor    -0xd0(%rbp),%rax
  400fdc:	48 89 85 70 ff ff ff 	mov    %rax,-0x90(%rbp)
  400fe3:	48 8b 85 88 fe ff ff 	mov    -0x178(%rbp),%rax
  400fea:	48 33 85 98 fe ff ff 	xor    -0x168(%rbp),%rax
  400ff1:	48 89 85 78 ff ff ff 	mov    %rax,-0x88(%rbp)
  400ff8:	48 8b 85 a0 fe ff ff 	mov    -0x160(%rbp),%rax
  400fff:	48 33 85 b0 fe ff ff 	xor    -0x150(%rbp),%rax
  401006:	48 89 45 80          	mov    %rax,-0x80(%rbp)
  40100a:	48 8b 85 a0 fe ff ff 	mov    -0x160(%rbp),%rax
  401011:	48 33 85 08 ff ff ff 	xor    -0xf8(%rbp),%rax
  401018:	48 89 45 88          	mov    %rax,-0x78(%rbp)
  40101c:	48 8b 85 c8 fe ff ff 	mov    -0x138(%rbp),%rax
  401023:	48 33 85 f0 fe ff ff 	xor    -0x110(%rbp),%rax
  40102a:	48 89 45 90          	mov    %rax,-0x70(%rbp)
  40102e:	48 8b 85 e0 fe ff ff 	mov    -0x120(%rbp),%rax
  401035:	48 33 85 00 ff ff ff 	xor    -0x100(%rbp),%rax
  40103c:	48 89 45 98          	mov    %rax,-0x68(%rbp)
  401040:	48 8b 85 e8 fe ff ff 	mov    -0x118(%rbp),%rax
  401047:	48 33 85 28 ff ff ff 	xor    -0xd8(%rbp),%rax
  40104e:	48 89 45 a0          	mov    %rax,-0x60(%rbp)
  401052:	48 8b 85 10 ff ff ff 	mov    -0xf0(%rbp),%rax
  401059:	48 33 85 40 ff ff ff 	xor    -0xc0(%rbp),%rax
  401060:	48 89 45 a8          	mov    %rax,-0x58(%rbp)
  401064:	48 8b 85 28 ff ff ff 	mov    -0xd8(%rbp),%rax
  40106b:	48 33 85 30 ff ff ff 	xor    -0xd0(%rbp),%rax
  401072:	48 89 45 b0          	mov    %rax,-0x50(%rbp)
  401076:	48 8b 85 38 ff ff ff 	mov    -0xc8(%rbp),%rax
  40107d:	48 33 85 48 ff ff ff 	xor    -0xb8(%rbp),%rax
  401084:	48 89 45 b8          	mov    %rax,-0x48(%rbp)
  401088:	48 8b 85 28 ff ff ff 	mov    -0xd8(%rbp),%rax
  40108f:	48 33 85 50 ff ff ff 	xor    -0xb0(%rbp),%rax
  401096:	48 89 45 c0          	mov    %rax,-0x40(%rbp)
  40109a:	48 8b 85 50 ff ff ff 	mov    -0xb0(%rbp),%rax
  4010a1:	48 33 85 58 ff ff ff 	xor    -0xa8(%rbp),%rax
  4010a8:	48 89 45 c8          	mov    %rax,-0x38(%rbp)
  4010ac:	48 8b 85 40 ff ff ff 	mov    -0xc0(%rbp),%rax
  4010b3:	48 33 85 50 ff ff ff 	xor    -0xb0(%rbp),%rax
  4010ba:	48 89 45 d0          	mov    %rax,-0x30(%rbp)
  4010be:	48 8b 85 48 ff ff ff 	mov    -0xb8(%rbp),%rax
  4010c5:	48 33 85 68 ff ff ff 	xor    -0x98(%rbp),%rax
  4010cc:	48 89 45 d8          	mov    %rax,-0x28(%rbp)
  4010d0:	48 8b 85 60 ff ff ff 	mov    -0xa0(%rbp),%rax
  4010d7:	48 33 85 70 ff ff ff 	xor    -0x90(%rbp),%rax
  4010de:	48 89 45 e0          	mov    %rax,-0x20(%rbp)
  4010e2:	48 8b 85 68 ff ff ff 	mov    -0x98(%rbp),%rax
  4010e9:	48 33 45 a8          	xor    -0x58(%rbp),%rax
  4010ed:	48 89 45 e8          	mov    %rax,-0x18(%rbp)
  4010f1:	48 8b 85 70 ff ff ff 	mov    -0x90(%rbp),%rax
  4010f8:	48 33 45 d8          	xor    -0x28(%rbp),%rax
  4010fc:	48 89 45 f0          	mov    %rax,-0x10(%rbp)
  401100:	48 8b 45 90          	mov    -0x70(%rbp),%rax
  401104:	48 33 45 b8          	xor    -0x48(%rbp),%rax
  401108:	48 89 45 f8          	mov    %rax,-0x8(%rbp)
  40110c:	48 8b 45 80          	mov    -0x80(%rbp),%rax
  401110:	48 33 45 c0          	xor    -0x40(%rbp),%rax
  401114:	48 89 c2             	mov    %rax,%rdx
  401117:	48 8b 85 38 fc ff ff 	mov    -0x3c8(%rbp),%rax
  40111e:	48 89 10             	mov    %rdx,(%rax)
  401121:	48 8b 85 38 fc ff ff 	mov    -0x3c8(%rbp),%rax
  401128:	48 8d 50 08          	lea    0x8(%rax),%rdx
  40112c:	48 8b 45 e0          	mov    -0x20(%rbp),%rax
  401130:	48 33 45 f8          	xor    -0x8(%rbp),%rax
  401134:	48 89 02             	mov    %rax,(%rdx)
  401137:	48 8b 85 38 fc ff ff 	mov    -0x3c8(%rbp),%rax
  40113e:	48 8d 50 10          	lea    0x10(%rax),%rdx
  401142:	48 8b 45 a0          	mov    -0x60(%rbp),%rax
  401146:	48 33 45 f0          	xor    -0x10(%rbp),%rax
  40114a:	48 89 02             	mov    %rax,(%rdx)
  40114d:	48 8b 85 38 fc ff ff 	mov    -0x3c8(%rbp),%rax
  401154:	48 8d 50 18          	lea    0x18(%rax),%rdx
  401158:	48 8b 85 78 ff ff ff 	mov    -0x88(%rbp),%rax
  40115f:	48 33 45 c0          	xor    -0x40(%rbp),%rax
  401163:	48 89 02             	mov    %rax,(%rdx)
  401166:	48 8b 85 38 fc ff ff 	mov    -0x3c8(%rbp),%rax
  40116d:	48 8d 50 20          	lea    0x20(%rax),%rdx
  401171:	48 8b 45 c8          	mov    -0x38(%rbp),%rax
  401175:	48 33 45 e8          	xor    -0x18(%rbp),%rax
  401179:	48 89 02             	mov    %rax,(%rdx)
  40117c:	48 8b 85 38 fc ff ff 	mov    -0x3c8(%rbp),%rax
  401183:	48 8d 50 28          	lea    0x28(%rax),%rdx
  401187:	48 8b 45 b0          	mov    -0x50(%rbp),%rax
  40118b:	48 33 45 d0          	xor    -0x30(%rbp),%rax
  40118f:	48 89 02             	mov    %rax,(%rdx)
  401192:	48 8b 85 38 fc ff ff 	mov    -0x3c8(%rbp),%rax
  401199:	48 8d 50 30          	lea    0x30(%rax),%rdx
  40119d:	48 8b 45 88          	mov    -0x78(%rbp),%rax
  4011a1:	48 33 45 c8          	xor    -0x38(%rbp),%rax
  4011a5:	48 89 02             	mov    %rax,(%rdx)
  4011a8:	48 8b 85 38 fc ff ff 	mov    -0x3c8(%rbp),%rax
  4011af:	48 8d 50 38          	lea    0x38(%rax),%rdx
  4011b3:	48 8b 85 60 ff ff ff 	mov    -0xa0(%rbp),%rax
  4011ba:	48 33 45 98          	xor    -0x68(%rbp),%rax
  4011be:	48 89 02             	mov    %rax,(%rdx)
  4011c1:	c9                   	leaveq 
  4011c2:	c3                   	retq   

00000000004011c3 <bs_sbox>:
  4011c3:	55                   	push   %rbp
  4011c4:	48 89 e5             	mov    %rsp,%rbp
  4011c7:	48 81 ec 58 03 00 00 	sub    $0x358,%rsp
  4011ce:	48 89 bd 38 fc ff ff 	mov    %rdi,-0x3c8(%rbp)
  4011d5:	48 89 b5 30 fc ff ff 	mov    %rsi,-0x3d0(%rbp)
  4011dc:	48 8b 85 30 fc ff ff 	mov    -0x3d0(%rbp),%rax
  4011e3:	48 8b 10             	mov    (%rax),%rdx
  4011e6:	48 8b 85 30 fc ff ff 	mov    -0x3d0(%rbp),%rax
  4011ed:	48 83 c0 18          	add    $0x18,%rax
  4011f1:	48 8b 00             	mov    (%rax),%rax
  4011f4:	48 31 d0             	xor    %rdx,%rax
  4011f7:	48 89 85 40 fc ff ff 	mov    %rax,-0x3c0(%rbp)
  4011fe:	48 8b 85 30 fc ff ff 	mov    -0x3d0(%rbp),%rax
  401205:	48 8b 10             	mov    (%rax),%rdx
  401208:	48 8b 85 30 fc ff ff 	mov    -0x3d0(%rbp),%rax
  40120f:	48 83 c0 28          	add    $0x28,%rax
  401213:	48 8b 00             	mov    (%rax),%rax
  401216:	48 31 d0             	xor    %rdx,%rax
  401219:	48 89 85 48 fc ff ff 	mov    %rax,-0x3b8(%rbp)
  401220:	48 8b 85 30 fc ff ff 	mov    -0x3d0(%rbp),%rax
  401227:	48 8b 10             	mov    (%rax),%rdx
  40122a:	48 8b 85 30 fc ff ff 	mov    -0x3d0(%rbp),%rax
  401231:	48 83 c0 30          	add    $0x30,%rax
  401235:	48 8b 00             	mov    (%rax),%rax
  401238:	48 31 d0             	xor    %rdx,%rax
  40123b:	48 89 85 50 fc ff ff 	mov    %rax,-0x3b0(%rbp)
  401242:	48 8b 85 30 fc ff ff 	mov    -0x3d0(%rbp),%rax
  401249:	48 83 c0 18          	add    $0x18,%rax
  40124d:	48 8b 10             	mov    (%rax),%rdx
  401250:	48 8b 85 30 fc ff ff 	mov    -0x3d0(%rbp),%rax
  401257:	48 83 c0 28          	add    $0x28,%rax
  40125b:	48 8b 00             	mov    (%rax),%rax
  40125e:	48 31 d0             	xor    %rdx,%rax
  401261:	48 89 85 58 fc ff ff 	mov    %rax,-0x3a8(%rbp)
  401268:	48 8b 85 30 fc ff ff 	mov    -0x3d0(%rbp),%rax
  40126f:	48 83 c0 20          	add    $0x20,%rax
  401273:	48 8b 10             	mov    (%rax),%rdx
  401276:	48 8b 85 30 fc ff ff 	mov    -0x3d0(%rbp),%rax
  40127d:	48 83 c0 30          	add    $0x30,%rax
  401281:	48 8b 00             	mov    (%rax),%rax
  401284:	48 31 d0             	xor    %rdx,%rax
  401287:	48 89 85 60 fc ff ff 	mov    %rax,-0x3a0(%rbp)
  40128e:	48 8b 85 40 fc ff ff 	mov    -0x3c0(%rbp),%rax
  401295:	48 33 85 60 fc ff ff 	xor    -0x3a0(%rbp),%rax
  40129c:	48 89 85 68 fc ff ff 	mov    %rax,-0x398(%rbp)
  4012a3:	48 8b 85 30 fc ff ff 	mov    -0x3d0(%rbp),%rax
  4012aa:	48 83 c0 08          	add    $0x8,%rax
  4012ae:	48 8b 10             	mov    (%rax),%rdx
  4012b1:	48 8b 85 30 fc ff ff 	mov    -0x3d0(%rbp),%rax
  4012b8:	48 83 c0 10          	add    $0x10,%rax
  4012bc:	48 8b 00             	mov    (%rax),%rax
  4012bf:	48 31 d0             	xor    %rdx,%rax
  4012c2:	48 89 85 70 fc ff ff 	mov    %rax,-0x390(%rbp)
  4012c9:	48 8b 85 30 fc ff ff 	mov    -0x3d0(%rbp),%rax
  4012d0:	48 83 c0 38          	add    $0x38,%rax
  4012d4:	48 8b 00             	mov    (%rax),%rax
  4012d7:	48 33 85 68 fc ff ff 	xor    -0x398(%rbp),%rax
  4012de:	48 89 85 78 fc ff ff 	mov    %rax,-0x388(%rbp)
  4012e5:	48 8b 85 30 fc ff ff 	mov    -0x3d0(%rbp),%rax
  4012ec:	48 83 c0 38          	add    $0x38,%rax
  4012f0:	48 8b 00             	mov    (%rax),%rax
  4012f3:	48 33 85 70 fc ff ff 	xor    -0x390(%rbp),%rax
  4012fa:	48 89 85 80 fc ff ff 	mov    %rax,-0x380(%rbp)
  401301:	48 8b 85 68 fc ff ff 	mov    -0x398(%rbp),%rax
  401308:	48 33 85 70 fc ff ff 	xor    -0x390(%rbp),%rax
  40130f:	48 89 85 88 fc ff ff 	mov    %rax,-0x378(%rbp)
  401316:	48 8b 85 30 fc ff ff 	mov    -0x3d0(%rbp),%rax
  40131d:	48 83 c0 08          	add    $0x8,%rax
  401321:	48 8b 10             	mov    (%rax),%rdx
  401324:	48 8b 85 30 fc ff ff 	mov    -0x3d0(%rbp),%rax
  40132b:	48 83 c0 28          	add    $0x28,%rax
  40132f:	48 8b 00             	mov    (%rax),%rax
  401332:	48 31 d0             	xor    %rdx,%rax
  401335:	48 89 85 90 fc ff ff 	mov    %rax,-0x370(%rbp)
  40133c:	48 8b 85 30 fc ff ff 	mov    -0x3d0(%rbp),%rax
  401343:	48 83 c0 10          	add    $0x10,%rax
  401347:	48 8b 10             	mov    (%rax),%rdx
  40134a:	48 8b 85 30 fc ff ff 	mov    -0x3d0(%rbp),%rax
  401351:	48 83 c0 28          	add    $0x28,%rax
  401355:	48 8b 00             	mov    (%rax),%rax
  401358:	48 31 d0             	xor    %rdx,%rax
  40135b:	48 89 85 98 fc ff ff 	mov    %rax,-0x368(%rbp)
  401362:	48 8b 85 50 fc ff ff 	mov    -0x3b0(%rbp),%rax
  401369:	48 33 85 58 fc ff ff 	xor    -0x3a8(%rbp),%rax
  401370:	48 89 85 a0 fc ff ff 	mov    %rax,-0x360(%rbp)
  401377:	48 8b 85 68 fc ff ff 	mov    -0x398(%rbp),%rax
  40137e:	48 33 85 90 fc ff ff 	xor    -0x370(%rbp),%rax
  401385:	48 89 85 a8 fc ff ff 	mov    %rax,-0x358(%rbp)
  40138c:	48 8b 85 60 fc ff ff 	mov    -0x3a0(%rbp),%rax
  401393:	48 33 85 90 fc ff ff 	xor    -0x370(%rbp),%rax
  40139a:	48 89 85 b0 fc ff ff 	mov    %rax,-0x350(%rbp)
  4013a1:	48 8b 85 60 fc ff ff 	mov    -0x3a0(%rbp),%rax
  4013a8:	48 33 85 98 fc ff ff 	xor    -0x368(%rbp),%rax
  4013af:	48 89 85 b8 fc ff ff 	mov    %rax,-0x348(%rbp)
  4013b6:	48 8b 85 80 fc ff ff 	mov    -0x380(%rbp),%rax
  4013bd:	48 33 85 b8 fc ff ff 	xor    -0x348(%rbp),%rax
  4013c4:	48 89 85 c0 fc ff ff 	mov    %rax,-0x340(%rbp)
  4013cb:	48 8b 85 30 fc ff ff 	mov    -0x3d0(%rbp),%rax
  4013d2:	48 83 c0 18          	add    $0x18,%rax
  4013d6:	48 8b 10             	mov    (%rax),%rdx
  4013d9:	48 8b 85 30 fc ff ff 	mov    -0x3d0(%rbp),%rax
  4013e0:	48 83 c0 38          	add    $0x38,%rax
  4013e4:	48 8b 00             	mov    (%rax),%rax
  4013e7:	48 31 d0             	xor    %rdx,%rax
  4013ea:	48 89 85 c8 fc ff ff 	mov    %rax,-0x338(%rbp)
  4013f1:	48 8b 85 70 fc ff ff 	mov    -0x390(%rbp),%rax
  4013f8:	48 33 85 c8 fc ff ff 	xor    -0x338(%rbp),%rax
  4013ff:	48 89 85 d0 fc ff ff 	mov    %rax,-0x330(%rbp)
  401406:	48 8b 85 40 fc ff ff 	mov    -0x3c0(%rbp),%rax
  40140d:	48 33 85 d0 fc ff ff 	xor    -0x330(%rbp),%rax
  401414:	48 89 85 d8 fc ff ff 	mov    %rax,-0x328(%rbp)
  40141b:	48 8b 85 30 fc ff ff 	mov    -0x3d0(%rbp),%rax
  401422:	48 83 c0 30          	add    $0x30,%rax
  401426:	48 8b 10             	mov    (%rax),%rdx
  401429:	48 8b 85 30 fc ff ff 	mov    -0x3d0(%rbp),%rax
  401430:	48 83 c0 38          	add    $0x38,%rax
  401434:	48 8b 00             	mov    (%rax),%rax
  401437:	48 31 d0             	xor    %rdx,%rax
  40143a:	48 89 85 e0 fc ff ff 	mov    %rax,-0x320(%rbp)
  401441:	48 8b 85 70 fc ff ff 	mov    -0x390(%rbp),%rax
  401448:	48 33 85 e0 fc ff ff 	xor    -0x320(%rbp),%rax
  40144f:	48 89 85 e8 fc ff ff 	mov    %rax,-0x318(%rbp)
  401456:	48 8b 85 48 fc ff ff 	mov    -0x3b8(%rbp),%rax
  40145d:	48 33 85 e8 fc ff ff 	xor    -0x318(%rbp),%rax
  401464:	48 89 85 f0 fc ff ff 	mov    %rax,-0x310(%rbp)
  40146b:	48 8b 85 48 fc ff ff 	mov    -0x3b8(%rbp),%rax
  401472:	48 33 85 88 fc ff ff 	xor    -0x378(%rbp),%rax
  401479:	48 89 85 f8 fc ff ff 	mov    %rax,-0x308(%rbp)
  401480:	48 8b 85 d8 fc ff ff 	mov    -0x328(%rbp),%rax
  401487:	48 33 85 c0 fc ff ff 	xor    -0x340(%rbp),%rax
  40148e:	48 89 85 00 fd ff ff 	mov    %rax,-0x300(%rbp)
  401495:	48 8b 85 50 fc ff ff 	mov    -0x3b0(%rbp),%rax
  40149c:	48 33 85 b8 fc ff ff 	xor    -0x348(%rbp),%rax
  4014a3:	48 89 85 08 fd ff ff 	mov    %rax,-0x2f8(%rbp)
  4014aa:	48 8b 85 40 fc ff ff 	mov    -0x3c0(%rbp),%rax
  4014b1:	48 33 85 98 fc ff ff 	xor    -0x368(%rbp),%rax
  4014b8:	48 89 85 10 fd ff ff 	mov    %rax,-0x2f0(%rbp)
  4014bf:	48 8b 85 a0 fc ff ff 	mov    -0x360(%rbp),%rax
  4014c6:	48 23 85 68 fc ff ff 	and    -0x398(%rbp),%rax
  4014cd:	48 89 85 18 fd ff ff 	mov    %rax,-0x2e8(%rbp)
  4014d4:	48 8b 85 f0 fc ff ff 	mov    -0x310(%rbp),%rax
  4014db:	48 23 85 78 fc ff ff 	and    -0x388(%rbp),%rax
  4014e2:	48 89 85 20 fd ff ff 	mov    %rax,-0x2e0(%rbp)
  4014e9:	48 8b 85 a8 fc ff ff 	mov    -0x358(%rbp),%rax
  4014f0:	48 33 85 18 fd ff ff 	xor    -0x2e8(%rbp),%rax
  4014f7:	48 89 85 28 fd ff ff 	mov    %rax,-0x2d8(%rbp)
  4014fe:	48 8b 85 30 fc ff ff 	mov    -0x3d0(%rbp),%rax
  401505:	48 83 c0 38          	add    $0x38,%rax
  401509:	48 8b 00             	mov    (%rax),%rax
  40150c:	48 23 85 d0 fc ff ff 	and    -0x330(%rbp),%rax
  401513:	48 89 85 30 fd ff ff 	mov    %rax,-0x2d0(%rbp)
  40151a:	48 8b 85 30 fd ff ff 	mov    -0x2d0(%rbp),%rax
  401521:	48 33 85 18 fd ff ff 	xor    -0x2e8(%rbp),%rax
  401528:	48 89 85 38 fd ff ff 	mov    %rax,-0x2c8(%rbp)
  40152f:	48 8b 85 50 fc ff ff 	mov    -0x3b0(%rbp),%rax
  401536:	48 23 85 b8 fc ff ff 	and    -0x348(%rbp),%rax
  40153d:	48 89 85 40 fd ff ff 	mov    %rax,-0x2c0(%rbp)
  401544:	48 8b 85 e8 fc ff ff 	mov    -0x318(%rbp),%rax
  40154b:	48 23 85 80 fc ff ff 	and    -0x380(%rbp),%rax
  401552:	48 89 85 48 fd ff ff 	mov    %rax,-0x2b8(%rbp)
  401559:	48 8b 85 08 fd ff ff 	mov    -0x2f8(%rbp),%rax
  401560:	48 33 85 40 fd ff ff 	xor    -0x2c0(%rbp),%rax
  401567:	48 89 85 50 fd ff ff 	mov    %rax,-0x2b0(%rbp)
  40156e:	48 8b 85 d8 fc ff ff 	mov    -0x328(%rbp),%rax
  401575:	48 23 85 c0 fc ff ff 	and    -0x340(%rbp),%rax
  40157c:	48 89 85 58 fd ff ff 	mov    %rax,-0x2a8(%rbp)
  401583:	48 8b 85 58 fd ff ff 	mov    -0x2a8(%rbp),%rax
  40158a:	48 33 85 40 fd ff ff 	xor    -0x2c0(%rbp),%rax
  401591:	48 89 85 60 fd ff ff 	mov    %rax,-0x2a0(%rbp)
  401598:	48 8b 85 40 fc ff ff 	mov    -0x3c0(%rbp),%rax
  40159f:	48 23 85 b0 fc ff ff 	and    -0x350(%rbp),%rax
  4015a6:	48 89 85 68 fd ff ff 	mov    %rax,-0x298(%rbp)
  4015ad:	48 8b 85 58 fc ff ff 	mov    -0x3a8(%rbp),%rax
  4015b4:	48 23 85 10 fd ff ff 	and    -0x2f0(%rbp),%rax
  4015bb:	48 89 85 70 fd ff ff 	mov    %rax,-0x290(%rbp)
  4015c2:	48 8b 85 70 fd ff ff 	mov    -0x290(%rbp),%rax
  4015c9:	48 33 85 68 fd ff ff 	xor    -0x298(%rbp),%rax
  4015d0:	48 89 85 78 fd ff ff 	mov    %rax,-0x288(%rbp)
  4015d7:	48 8b 85 48 fc ff ff 	mov    -0x3b8(%rbp),%rax
  4015de:	48 23 85 88 fc ff ff 	and    -0x378(%rbp),%rax
  4015e5:	48 89 85 80 fd ff ff 	mov    %rax,-0x280(%rbp)
  4015ec:	48 8b 85 80 fd ff ff 	mov    -0x280(%rbp),%rax
  4015f3:	48 33 85 68 fd ff ff 	xor    -0x298(%rbp),%rax
  4015fa:	48 89 85 88 fd ff ff 	mov    %rax,-0x278(%rbp)
  401601:	48 8b 85 28 fd ff ff 	mov    -0x2d8(%rbp),%rax
  401608:	48 33 85 20 fd ff ff 	xor    -0x2e0(%rbp),%rax
  40160f:	48 89 85 90 fd ff ff 	mov    %rax,-0x270(%rbp)
  401616:	48 8b 85 38 fd ff ff 	mov    -0x2c8(%rbp),%rax
  40161d:	48 33 85 f8 fc ff ff 	xor    -0x308(%rbp),%rax
  401624:	48 89 85 98 fd ff ff 	mov    %rax,-0x268(%rbp)
  40162b:	48 8b 85 50 fd ff ff 	mov    -0x2b0(%rbp),%rax
  401632:	48 33 85 48 fd ff ff 	xor    -0x2b8(%rbp),%rax
  401639:	48 89 85 a0 fd ff ff 	mov    %rax,-0x260(%rbp)
  401640:	48 8b 85 60 fd ff ff 	mov    -0x2a0(%rbp),%rax
  401647:	48 33 85 88 fd ff ff 	xor    -0x278(%rbp),%rax
  40164e:	48 89 85 a8 fd ff ff 	mov    %rax,-0x258(%rbp)
  401655:	48 8b 85 90 fd ff ff 	mov    -0x270(%rbp),%rax
  40165c:	48 33 85 78 fd ff ff 	xor    -0x288(%rbp),%rax
  401663:	48 89 85 b0 fd ff ff 	mov    %rax,-0x250(%rbp)
  40166a:	48 8b 85 98 fd ff ff 	mov    -0x268(%rbp),%rax
  401671:	48 33 85 88 fd ff ff 	xor    -0x278(%rbp),%rax
  401678:	48 89 85 b8 fd ff ff 	mov    %rax,-0x248(%rbp)
  40167f:	48 8b 85 a0 fd ff ff 	mov    -0x260(%rbp),%rax
  401686:	48 33 85 78 fd ff ff 	xor    -0x288(%rbp),%rax
  40168d:	48 89 85 c0 fd ff ff 	mov    %rax,-0x240(%rbp)
  401694:	48 8b 85 a8 fd ff ff 	mov    -0x258(%rbp),%rax
  40169b:	48 33 85 00 fd ff ff 	xor    -0x300(%rbp),%rax
  4016a2:	48 89 85 c8 fd ff ff 	mov    %rax,-0x238(%rbp)
  4016a9:	48 8b 85 c0 fd ff ff 	mov    -0x240(%rbp),%rax
  4016b0:	48 33 85 c8 fd ff ff 	xor    -0x238(%rbp),%rax
  4016b7:	48 89 85 d0 fd ff ff 	mov    %rax,-0x230(%rbp)
  4016be:	48 8b 85 c0 fd ff ff 	mov    -0x240(%rbp),%rax
  4016c5:	48 23 85 b0 fd ff ff 	and    -0x250(%rbp),%rax
  4016cc:	48 89 85 d8 fd ff ff 	mov    %rax,-0x228(%rbp)
  4016d3:	48 8b 85 b8 fd ff ff 	mov    -0x248(%rbp),%rax
  4016da:	48 33 85 d8 fd ff ff 	xor    -0x228(%rbp),%rax
  4016e1:	48 89 85 e0 fd ff ff 	mov    %rax,-0x220(%rbp)
  4016e8:	48 8b 85 b0 fd ff ff 	mov    -0x250(%rbp),%rax
  4016ef:	48 33 85 b8 fd ff ff 	xor    -0x248(%rbp),%rax
  4016f6:	48 89 85 e8 fd ff ff 	mov    %rax,-0x218(%rbp)
  4016fd:	48 8b 85 c8 fd ff ff 	mov    -0x238(%rbp),%rax
  401704:	48 33 85 d8 fd ff ff 	xor    -0x228(%rbp),%rax
  40170b:	48 89 85 f0 fd ff ff 	mov    %rax,-0x210(%rbp)
  401712:	48 8b 85 f0 fd ff ff 	mov    -0x210(%rbp),%rax
  401719:	48 23 85 e8 fd ff ff 	and    -0x218(%rbp),%rax
  401720:	48 89 85 f8 fd ff ff 	mov    %rax,-0x208(%rbp)
  401727:	48 8b 85 e0 fd ff ff 	mov    -0x220(%rbp),%rax
  40172e:	48 23 85 d0 fd ff ff 	and    -0x230(%rbp),%rax
  401735:	48 89 85 00 fe ff ff 	mov    %rax,-0x200(%rbp)
  40173c:	48 8b 85 b0 fd ff ff 	mov    -0x250(%rbp),%rax
  401743:	48 23 85 c8 fd ff ff 	and    -0x238(%rbp),%rax
  40174a:	48 89 85 08 fe ff ff 	mov    %rax,-0x1f8(%rbp)
  401751:	48 8b 85 e8 fd ff ff 	mov    -0x218(%rbp),%rax
  401758:	48 23 85 08 fe ff ff 	and    -0x1f8(%rbp),%rax
  40175f:	48 89 85 10 fe ff ff 	mov    %rax,-0x1f0(%rbp)
  401766:	48 8b 85 e8 fd ff ff 	mov    -0x218(%rbp),%rax
  40176d:	48 33 85 d8 fd ff ff 	xor    -0x228(%rbp),%rax
  401774:	48 89 85 18 fe ff ff 	mov    %rax,-0x1e8(%rbp)
  40177b:	48 8b 85 b8 fd ff ff 	mov    -0x248(%rbp),%rax
  401782:	48 23 85 c0 fd ff ff 	and    -0x240(%rbp),%rax
  401789:	48 89 85 20 fe ff ff 	mov    %rax,-0x1e0(%rbp)
  401790:	48 8b 85 d0 fd ff ff 	mov    -0x230(%rbp),%rax
  401797:	48 23 85 20 fe ff ff 	and    -0x1e0(%rbp),%rax
  40179e:	48 89 85 28 fe ff ff 	mov    %rax,-0x1d8(%rbp)
  4017a5:	48 8b 85 d0 fd ff ff 	mov    -0x230(%rbp),%rax
  4017ac:	48 33 85 d8 fd ff ff 	xor    -0x228(%rbp),%rax
  4017b3:	48 89 85 30 fe ff ff 	mov    %rax,-0x1d0(%rbp)
  4017ba:	48 8b 85 b8 fd ff ff 	mov    -0x248(%rbp),%rax
  4017c1:	48 33 85 f8 fd ff ff 	xor    -0x208(%rbp),%rax
  4017c8:	48 89 85 38 fe ff ff 	mov    %rax,-0x1c8(%rbp)
  4017cf:	48 8b 85 10 fe ff ff 	mov    -0x1f0(%rbp),%rax
  4017d6:	48 33 85 18 fe ff ff 	xor    -0x1e8(%rbp),%rax
  4017dd:	48 89 85 40 fe ff ff 	mov    %rax,-0x1c0(%rbp)
  4017e4:	48 8b 85 c8 fd ff ff 	mov    -0x238(%rbp),%rax
  4017eb:	48 33 85 00 fe ff ff 	xor    -0x200(%rbp),%rax
  4017f2:	48 89 85 48 fe ff ff 	mov    %rax,-0x1b8(%rbp)
  4017f9:	48 8b 85 28 fe ff ff 	mov    -0x1d8(%rbp),%rax
  401800:	48 33 85 30 fe ff ff 	xor    -0x1d0(%rbp),%rax
  401807:	48 89 85 50 fe ff ff 	mov    %rax,-0x1b0(%rbp)
  40180e:	48 8b 85 40 fe ff ff 	mov    -0x1c0(%rbp),%rax
  401815:	48 33 85 50 fe ff ff 	xor    -0x1b0(%rbp),%rax
  40181c:	48 89 85 58 fe ff ff 	mov    %rax,-0x1a8(%rbp)
  401823:	48 8b 85 38 fe ff ff 	mov    -0x1c8(%rbp),%rax
  40182a:	48 33 85 48 fe ff ff 	xor    -0x1b8(%rbp),%rax
  401831:	48 89 85 60 fe ff ff 	mov    %rax,-0x1a0(%rbp)
  401838:	48 8b 85 38 fe ff ff 	mov    -0x1c8(%rbp),%rax
  40183f:	48 33 85 40 fe ff ff 	xor    -0x1c0(%rbp),%rax
  401846:	48 89 85 68 fe ff ff 	mov    %rax,-0x198(%rbp)
  40184d:	48 8b 85 48 fe ff ff 	mov    -0x1b8(%rbp),%rax
  401854:	48 33 85 50 fe ff ff 	xor    -0x1b0(%rbp),%rax
  40185b:	48 89 85 70 fe ff ff 	mov    %rax,-0x190(%rbp)
  401862:	48 8b 85 60 fe ff ff 	mov    -0x1a0(%rbp),%rax
  401869:	48 33 85 58 fe ff ff 	xor    -0x1a8(%rbp),%rax
  401870:	48 89 85 78 fe ff ff 	mov    %rax,-0x188(%rbp)
  401877:	48 8b 85 70 fe ff ff 	mov    -0x190(%rbp),%rax
  40187e:	48 23 85 68 fc ff ff 	and    -0x398(%rbp),%rax
  401885:	48 89 85 80 fe ff ff 	mov    %rax,-0x180(%rbp)
  40188c:	48 8b 85 50 fe ff ff 	mov    -0x1b0(%rbp),%rax
  401893:	48 23 85 78 fc ff ff 	and    -0x388(%rbp),%rax
  40189a:	48 89 85 88 fe ff ff 	mov    %rax,-0x178(%rbp)
  4018a1:	48 8b 85 30 fc ff ff 	mov    -0x3d0(%rbp),%rax
  4018a8:	48 83 c0 38          	add    $0x38,%rax
  4018ac:	48 8b 00             	mov    (%rax),%rax
  4018af:	48 23 85 48 fe ff ff 	and    -0x1b8(%rbp),%rax
  4018b6:	48 89 85 90 fe ff ff 	mov    %rax,-0x170(%rbp)
  4018bd:	48 8b 85 68 fe ff ff 	mov    -0x198(%rbp),%rax
  4018c4:	48 23 85 b8 fc ff ff 	and    -0x348(%rbp),%rax
  4018cb:	48 89 85 98 fe ff ff 	mov    %rax,-0x168(%rbp)
  4018d2:	48 8b 85 40 fe ff ff 	mov    -0x1c0(%rbp),%rax
  4018d9:	48 23 85 80 fc ff ff 	and    -0x380(%rbp),%rax
  4018e0:	48 89 85 a0 fe ff ff 	mov    %rax,-0x160(%rbp)
  4018e7:	48 8b 85 38 fe ff ff 	mov    -0x1c8(%rbp),%rax
  4018ee:	48 23 85 c0 fc ff ff 	and    -0x340(%rbp),%rax
  4018f5:	48 89 85 a8 fe ff ff 	mov    %rax,-0x158(%rbp)
  4018fc:	48 8b 85 60 fe ff ff 	mov    -0x1a0(%rbp),%rax
  401903:	48 23 85 b0 fc ff ff 	and    -0x350(%rbp),%rax
  40190a:	48 89 85 b0 fe ff ff 	mov    %rax,-0x150(%rbp)
  401911:	48 8b 85 78 fe ff ff 	mov    -0x188(%rbp),%rax
  401918:	48 23 85 10 fd ff ff 	and    -0x2f0(%rbp),%rax
  40191f:	48 89 85 b8 fe ff ff 	mov    %rax,-0x148(%rbp)
  401926:	48 8b 85 58 fe ff ff 	mov    -0x1a8(%rbp),%rax
  40192d:	48 23 85 88 fc ff ff 	and    -0x378(%rbp),%rax
  401934:	48 89 85 c0 fe ff ff 	mov    %rax,-0x140(%rbp)
  40193b:	48 8b 85 70 fe ff ff 	mov    -0x190(%rbp),%rax
  401942:	48 23 85 a0 fc ff ff 	and    -0x360(%rbp),%rax
  401949:	48 89 85 c8 fe ff ff 	mov    %rax,-0x138(%rbp)
  401950:	48 8b 85 50 fe ff ff 	mov    -0x1b0(%rbp),%rax
  401957:	48 23 85 f0 fc ff ff 	and    -0x310(%rbp),%rax
  40195e:	48 89 85 d0 fe ff ff 	mov    %rax,-0x130(%rbp)
  401965:	48 8b 85 48 fe ff ff 	mov    -0x1b8(%rbp),%rax
  40196c:	48 23 85 d0 fc ff ff 	and    -0x330(%rbp),%rax
  401973:	48 89 85 d8 fe ff ff 	mov    %rax,-0x128(%rbp)
  40197a:	48 8b 85 68 fe ff ff 	mov    -0x198(%rbp),%rax
  401981:	48 23 85 50 fc ff ff 	and    -0x3b0(%rbp),%rax
  401988:	48 89 85 e0 fe ff ff 	mov    %rax,-0x120(%rbp)
  40198f:	48 8b 85 40 fe ff ff 	mov    -0x1c0(%rbp),%rax
  401996:	48 23 85 e8 fc ff ff 	and    -0x318(%rbp),%rax
  40199d:	48 89 85 e8 fe ff ff 	mov    %rax,-0x118(%rbp)
  4019a4:	48 8b 85 38 fe ff ff 	mov    -0x1c8(%rbp),%rax
  4019ab:	48 23 85 d8 fc ff ff 	and    -0x328(%rbp),%rax
  4019b2:	48 89 85 f0 fe ff ff 	mov    %rax,-0x110(%rbp)
  4019b9:	48 8b 85 60 fe ff ff 	mov    -0x1a0(%rbp),%rax
  4019c0:	48 23 85 40 fc ff ff 	and    -0x3c0(%rbp),%rax
  4019c7:	48 89 85 f8 fe ff ff 	mov    %rax,-0x108(%rbp)
  4019ce:	48 8b 85 78 fe ff ff 	mov    -0x188(%rbp),%rax
  4019d5:	48 23 85 58 fc ff ff 	and    -0x3a8(%rbp),%rax
  4019dc:	48 89 85 00 ff ff ff 	mov    %rax,-0x100(%rbp)
  4019e3:	48 8b 85 58 fe ff ff 	mov    -0x1a8(%rbp),%rax
  4019ea:	48 23 85 48 fc ff ff 	and    -0x3b8(%rbp),%rax
  4019f1:	48 89 85 08 ff ff ff 	mov    %rax,-0xf8(%rbp)
  4019f8:	48 8b 85 f8 fe ff ff 	mov    -0x108(%rbp),%rax
  4019ff:	48 33 85 00 ff ff ff 	xor    -0x100(%rbp),%rax
  401a06:	48 89 85 10 ff ff ff 	mov    %rax,-0xf0(%rbp)
  401a0d:	48 8b 85 a0 fe ff ff 	mov    -0x160(%rbp),%rax
  401a14:	48 33 85 d0 fe ff ff 	xor    -0x130(%rbp),%rax
  401a1b:	48 89 85 18 ff ff ff 	mov    %rax,-0xe8(%rbp)
  401a22:	48 8b 85 80 fe ff ff 	mov    -0x180(%rbp),%rax
  401a29:	48 33 85 90 fe ff ff 	xor    -0x170(%rbp),%rax
  401a30:	48 89 85 20 ff ff ff 	mov    %rax,-0xe0(%rbp)
  401a37:	48 8b 85 88 fe ff ff 	mov    -0x178(%rbp),%rax
  401a3e:	48 33 85 c8 fe ff ff 	xor    -0x138(%rbp),%rax
  401a45:	48 89 85 28 ff ff ff 	mov    %rax,-0xd8(%rbp)
  401a4c:	48 8b 85 c0 fe ff ff 	mov    -0x140(%rbp),%rax
  401a53:	48 33 85 e0 fe ff ff 	xor    -0x120(%rbp),%rax
  401a5a:	48 89 85 30 ff ff ff 	mov    %rax,-0xd0(%rbp)
  401a61:	48 8b 85 98 fe ff ff 	mov    -0x168(%rbp),%rax
  401a68:	48 33 85 f8 fe ff ff 	xor    -0x108(%rbp),%rax
  401a6f:	48 89 85 38 ff ff ff 	mov    %rax,-0xc8(%rbp)
  401a76:	48 8b 85 00 ff ff ff 	mov    -0x100(%rbp),%rax
  401a7d:	48 33 85 38 ff ff ff 	xor    -0xc8(%rbp),%rax
  401a84:	48 89 85 40 ff ff ff 	mov    %rax,-0xc0(%rbp)
  401a8b:	48 8b 85 80 fe ff ff 	mov    -0x180(%rbp),%rax
  401a92:	48 33 85 28 ff ff ff 	xor    -0xd8(%rbp),%rax
  401a99:	48 89 85 48 ff ff ff 	mov    %rax,-0xb8(%rbp)
  401aa0:	48 8b 85 a8 fe ff ff 	mov    -0x158(%rbp),%rax
  401aa7:	48 33 85 e8 fe ff ff 	xor    -0x118(%rbp),%rax
  401aae:	48 89 85 50 ff ff ff 	mov    %rax,-0xb0(%rbp)
  401ab5:	48 8b 85 b0 fe ff ff 	mov    -0x150(%rbp),%rax
  401abc:	48 33 85 b8 fe ff ff 	xor    -0x148(%rbp),%rax
  401ac3:	48 89 85 58 ff ff ff 	mov    %rax,-0xa8(%rbp)
  401aca:	48 8b 85 b8 fe ff ff 	mov    -0x148(%rbp),%rax
  401ad1:	48 33 85 30 ff ff ff 	xor    -0xd0(%rbp),%rax
  401ad8:	48 89 85 60 ff ff ff 	mov    %rax,-0xa0(%rbp)
  401adf:	48 8b 85 f0 fe ff ff 	mov    -0x110(%rbp),%rax
  401ae6:	48 33 85 20 ff ff ff 	xor    -0xe0(%rbp),%rax
  401aed:	48 89 85 68 ff ff ff 	mov    %rax,-0x98(%rbp)
  401af4:	48 8b 85 90 fe ff ff 	mov    -0x170(%rbp),%rax
  401afb:	48 33 85 a8 fe ff ff 	xor    -0x158(%rbp),%rax
  401b02:	48 89 85 70 ff ff ff 	mov    %rax,-0x90(%rbp)
  401b09:	48 8b 85 a0 fe ff ff 	mov    -0x160(%rbp),%rax
  401b10:	48 33 85 10 ff ff ff 	xor    -0xf0(%rbp),%rax
  401b17:	48 89 85 78 ff ff ff 	mov    %rax,-0x88(%rbp)
  401b1e:	48 8b 85 b0 fe ff ff 	mov    -0x150(%rbp),%rax
  401b25:	48 33 85 f8 fe ff ff 	xor    -0x108(%rbp),%rax
  401b2c:	48 89 45 80          	mov    %rax,-0x80(%rbp)
  401b30:	48 8b 85 c8 fe ff ff 	mov    -0x138(%rbp),%rax
  401b37:	48 33 85 18 ff ff ff 	xor    -0xe8(%rbp),%rax
  401b3e:	48 89 45 88          	mov    %rax,-0x78(%rbp)
  401b42:	48 8b 85 d0 fe ff ff 	mov    -0x130(%rbp),%rax
  401b49:	48 33 85 10 ff ff ff 	xor    -0xf0(%rbp),%rax
  401b50:	48 89 45 90          	mov    %rax,-0x70(%rbp)
  401b54:	48 8b 85 d8 fe ff ff 	mov    -0x128(%rbp),%rax
  401b5b:	48 33 85 18 ff ff ff 	xor    -0xe8(%rbp),%rax
  401b62:	48 89 45 98          	mov    %rax,-0x68(%rbp)
  401b66:	48 8b 85 e0 fe ff ff 	mov    -0x120(%rbp),%rax
  401b6d:	48 33 85 50 ff ff ff 	xor    -0xb0(%rbp),%rax
  401b74:	48 89 45 a0          	mov    %rax,-0x60(%rbp)
  401b78:	48 8b 85 08 ff ff ff 	mov    -0xf8(%rbp),%rax
  401b7f:	48 33 85 30 ff ff ff 	xor    -0xd0(%rbp),%rax
  401b86:	48 89 45 a8          	mov    %rax,-0x58(%rbp)
  401b8a:	48 8b 85 10 ff ff ff 	mov    -0xf0(%rbp),%rax
  401b91:	48 33 85 18 ff ff ff 	xor    -0xe8(%rbp),%rax
  401b98:	48 89 45 b0          	mov    %rax,-0x50(%rbp)
  401b9c:	48 8b 85 18 ff ff ff 	mov    -0xe8(%rbp),%rax
  401ba3:	48 33 85 48 ff ff ff 	xor    -0xb8(%rbp),%rax
  401baa:	48 89 45 b8          	mov    %rax,-0x48(%rbp)
  401bae:	48 8b 85 28 ff ff ff 	mov    -0xd8(%rbp),%rax
  401bb5:	48 33 85 70 ff ff ff 	xor    -0x90(%rbp),%rax
  401bbc:	48 89 45 c0          	mov    %rax,-0x40(%rbp)
  401bc0:	48 8b 45 a0          	mov    -0x60(%rbp),%rax
  401bc4:	48 33 85 20 ff ff ff 	xor    -0xe0(%rbp),%rax
  401bcb:	48 89 45 c8          	mov    %rax,-0x38(%rbp)
  401bcf:	48 8b 45 88          	mov    -0x78(%rbp),%rax
  401bd3:	48 33 85 58 ff ff ff 	xor    -0xa8(%rbp),%rax
  401bda:	48 89 45 d0          	mov    %rax,-0x30(%rbp)
  401bde:	48 8b 85 40 ff ff ff 	mov    -0xc0(%rbp),%rax
  401be5:	48 33 85 60 ff ff ff 	xor    -0xa0(%rbp),%rax
  401bec:	48 89 45 d8          	mov    %rax,-0x28(%rbp)
  401bf0:	48 8b 85 48 ff ff ff 	mov    -0xb8(%rbp),%rax
  401bf7:	48 33 85 58 ff ff ff 	xor    -0xa8(%rbp),%rax
  401bfe:	48 89 45 e0          	mov    %rax,-0x20(%rbp)
  401c02:	48 8b 85 50 ff ff ff 	mov    -0xb0(%rbp),%rax
  401c09:	48 33 85 60 ff ff ff 	xor    -0xa0(%rbp),%rax
  401c10:	48 89 45 e8          	mov    %rax,-0x18(%rbp)
  401c14:	48 8b 85 68 ff ff ff 	mov    -0x98(%rbp),%rax
  401c1b:	48 33 45 80          	xor    -0x80(%rbp),%rax
  401c1f:	48 89 45 f0          	mov    %rax,-0x10(%rbp)
  401c23:	48 8b 85 68 ff ff ff 	mov    -0x98(%rbp),%rax
  401c2a:	48 33 45 98          	xor    -0x68(%rbp),%rax
  401c2e:	48 89 45 f8          	mov    %rax,-0x8(%rbp)
  401c32:	48 8b 85 40 ff ff ff 	mov    -0xc0(%rbp),%rax
  401c39:	48 33 45 d0          	xor    -0x30(%rbp),%rax
  401c3d:	48 89 c2             	mov    %rax,%rdx
  401c40:	48 8b 85 38 fc ff ff 	mov    -0x3c8(%rbp),%rax
  401c47:	48 89 10             	mov    %rdx,(%rax)
  401c4a:	48 8b 85 38 fc ff ff 	mov    -0x3c8(%rbp),%rax
  401c51:	48 8d 50 08          	lea    0x8(%rax),%rdx
  401c55:	48 8b 45 90          	mov    -0x70(%rbp),%rax
  401c59:	48 33 45 e0          	xor    -0x20(%rbp),%rax
  401c5d:	48 f7 d0             	not    %rax
  401c60:	48 89 02             	mov    %rax,(%rdx)
  401c63:	48 8b 85 38 fc ff ff 	mov    -0x3c8(%rbp),%rax
  401c6a:	48 8d 50 10          	lea    0x10(%rax),%rdx
  401c6e:	48 8b 45 a8          	mov    -0x58(%rbp),%rax
  401c72:	48 33 45 f0          	xor    -0x10(%rbp),%rax
  401c76:	48 f7 d0             	not    %rax
  401c79:	48 89 02             	mov    %rax,(%rdx)
  401c7c:	48 8b 85 38 fc ff ff 	mov    -0x3c8(%rbp),%rax
  401c83:	48 8d 50 18          	lea    0x18(%rax),%rdx
  401c87:	48 8b 85 40 ff ff ff 	mov    -0xc0(%rbp),%rax
  401c8e:	48 33 45 b8          	xor    -0x48(%rbp),%rax
  401c92:	48 89 02             	mov    %rax,(%rdx)
  401c95:	48 8b 85 38 fc ff ff 	mov    -0x3c8(%rbp),%rax
  401c9c:	48 8d 50 20          	lea    0x20(%rax),%rdx
  401ca0:	48 8b 45 b0          	mov    -0x50(%rbp),%rax
  401ca4:	48 33 45 c0          	xor    -0x40(%rbp),%rax
  401ca8:	48 89 02             	mov    %rax,(%rdx)
  401cab:	48 8b 85 38 fc ff ff 	mov    -0x3c8(%rbp),%rax
  401cb2:	48 8d 50 28          	lea    0x28(%rax),%rdx
  401cb6:	48 8b 45 d8          	mov    -0x28(%rbp),%rax
  401cba:	48 33 45 f8          	xor    -0x8(%rbp),%rax
  401cbe:	48 89 02             	mov    %rax,(%rdx)
  401cc1:	48 8b 85 38 fc ff ff 	mov    -0x3c8(%rbp),%rax
  401cc8:	48 8d 50 30          	lea    0x30(%rax),%rdx
  401ccc:	48 8b 85 78 ff ff ff 	mov    -0x88(%rbp),%rax
  401cd3:	48 33 45 e8          	xor    -0x18(%rbp),%rax
  401cd7:	48 f7 d0             	not    %rax
  401cda:	48 89 02             	mov    %rax,(%rdx)
  401cdd:	48 8b 85 38 fc ff ff 	mov    -0x3c8(%rbp),%rax
  401ce4:	48 8d 50 38          	lea    0x38(%rax),%rdx
  401ce8:	48 8b 85 40 ff ff ff 	mov    -0xc0(%rbp),%rax
  401cef:	48 33 45 c8          	xor    -0x38(%rbp),%rax
  401cf3:	48 f7 d0             	not    %rax
  401cf6:	48 89 02             	mov    %rax,(%rdx)
  401cf9:	c9                   	leaveq 
  401cfa:	c3                   	retq   

0000000000401cfb <bs_transpose>:
  401cfb:	55                   	push   %rbp
  401cfc:	48 89 e5             	mov    %rsp,%rbp
  401cff:	48 89 7d d8          	mov    %rdi,-0x28(%rbp)
  401d03:	48 89 75 d0          	mov    %rsi,-0x30(%rbp)
  401d07:	c7 45 f4 00 00 00 00 	movl   $0x0,-0xc(%rbp)
  401d0e:	e9 c7 00 00 00       	jmpq   401dda <bs_transpose+0xdf>
  401d13:	c7 45 ec 00 00 00 00 	movl   $0x0,-0x14(%rbp)
  401d1a:	e9 ad 00 00 00       	jmpq   401dcc <bs_transpose+0xd1>
  401d1f:	8b 45 f4             	mov    -0xc(%rbp),%eax
  401d22:	8d 14 00             	lea    (%rax,%rax,1),%edx
  401d25:	8b 45 ec             	mov    -0x14(%rbp),%eax
  401d28:	01 d0                	add    %edx,%eax
  401d2a:	48 98                	cltq   
  401d2c:	48 8d 14 c5 00 00 00 	lea    0x0(,%rax,8),%rdx
  401d33:	00 
  401d34:	48 8b 45 d0          	mov    -0x30(%rbp),%rax
  401d38:	48 01 d0             	add    %rdx,%rax
  401d3b:	48 8b 00             	mov    (%rax),%rax
  401d3e:	48 89 45 f8          	mov    %rax,-0x8(%rbp)
  401d42:	c7 45 f0 00 00 00 00 	movl   $0x0,-0x10(%rbp)
  401d49:	eb 77                	jmp    401dc2 <bs_transpose+0xc7>
  401d4b:	8b 45 ec             	mov    -0x14(%rbp),%eax
  401d4e:	c1 e0 06             	shl    $0x6,%eax
  401d51:	89 c2                	mov    %eax,%edx
  401d53:	8b 45 f0             	mov    -0x10(%rbp),%eax
  401d56:	01 d0                	add    %edx,%eax
  401d58:	48 98                	cltq   
  401d5a:	48 8d 14 c5 00 00 00 	lea    0x0(,%rax,8),%rdx
  401d61:	00 
  401d62:	48 8b 45 d8          	mov    -0x28(%rbp),%rax
  401d66:	48 01 c2             	add    %rax,%rdx
  401d69:	8b 45 ec             	mov    -0x14(%rbp),%eax
  401d6c:	c1 e0 06             	shl    $0x6,%eax
  401d6f:	89 c1                	mov    %eax,%ecx
  401d71:	8b 45 f0             	mov    -0x10(%rbp),%eax
  401d74:	01 c8                	add    %ecx,%eax
  401d76:	48 98                	cltq   
  401d78:	48 8d 0c c5 00 00 00 	lea    0x0(,%rax,8),%rcx
  401d7f:	00 
  401d80:	48 8b 45 d8          	mov    -0x28(%rbp),%rax
  401d84:	48 01 c8             	add    %rcx,%rax
  401d87:	48 8b 30             	mov    (%rax),%rsi
  401d8a:	8b 45 f0             	mov    -0x10(%rbp),%eax
  401d8d:	48 8b 7d f8          	mov    -0x8(%rbp),%rdi
  401d91:	89 c1                	mov    %eax,%ecx
  401d93:	48 d3 ef             	shr    %cl,%rdi
  401d96:	48 89 f8             	mov    %rdi,%rax
  401d99:	83 e0 01             	and    $0x1,%eax
  401d9c:	48 85 c0             	test   %rax,%rax
  401d9f:	74 12                	je     401db3 <bs_transpose+0xb8>
  401da1:	8b 45 f4             	mov    -0xc(%rbp),%eax
  401da4:	bf 01 00 00 00       	mov    $0x1,%edi
  401da9:	89 c1                	mov    %eax,%ecx
  401dab:	48 d3 e7             	shl    %cl,%rdi
  401dae:	48 89 f8             	mov    %rdi,%rax
  401db1:	eb 05                	jmp    401db8 <bs_transpose+0xbd>
  401db3:	b8 00 00 00 00       	mov    $0x0,%eax
  401db8:	48 09 f0             	or     %rsi,%rax
  401dbb:	48 89 02             	mov    %rax,(%rdx)
  401dbe:	83 45 f0 01          	addl   $0x1,-0x10(%rbp)
  401dc2:	83 7d f0 3f          	cmpl   $0x3f,-0x10(%rbp)
  401dc6:	7e 83                	jle    401d4b <bs_transpose+0x50>
  401dc8:	83 45 ec 01          	addl   $0x1,-0x14(%rbp)
  401dcc:	83 7d ec 01          	cmpl   $0x1,-0x14(%rbp)
  401dd0:	0f 8e 49 ff ff ff    	jle    401d1f <bs_transpose+0x24>
  401dd6:	83 45 f4 01          	addl   $0x1,-0xc(%rbp)
  401dda:	83 7d f4 3f          	cmpl   $0x3f,-0xc(%rbp)
  401dde:	0f 8e 2f ff ff ff    	jle    401d13 <bs_transpose+0x18>
  401de4:	5d                   	pop    %rbp
  401de5:	c3                   	retq   

0000000000401de6 <bs_transpose_rev>:
  401de6:	55                   	push   %rbp
  401de7:	48 89 e5             	mov    %rsp,%rbp
  401dea:	48 89 7d d8          	mov    %rdi,-0x28(%rbp)
  401dee:	48 89 75 d0          	mov    %rsi,-0x30(%rbp)
  401df2:	c7 45 ec 00 00 00 00 	movl   $0x0,-0x14(%rbp)
  401df9:	e9 c6 00 00 00       	jmpq   401ec4 <bs_transpose_rev+0xde>
  401dfe:	8b 45 ec             	mov    -0x14(%rbp),%eax
  401e01:	48 98                	cltq   
  401e03:	48 8d 14 c5 00 00 00 	lea    0x0(,%rax,8),%rdx
  401e0a:	00 
  401e0b:	48 8b 45 d0          	mov    -0x30(%rbp),%rax
  401e0f:	48 01 d0             	add    %rdx,%rax
  401e12:	48 8b 00             	mov    (%rax),%rax
  401e15:	48 89 45 f0          	mov    %rax,-0x10(%rbp)
  401e19:	c7 45 e8 00 00 00 00 	movl   $0x0,-0x18(%rbp)
  401e20:	e9 91 00 00 00       	jmpq   401eb6 <bs_transpose_rev+0xd0>
  401e25:	8b 45 e8             	mov    -0x18(%rbp),%eax
  401e28:	48 8b 55 f0          	mov    -0x10(%rbp),%rdx
  401e2c:	89 c1                	mov    %eax,%ecx
  401e2e:	48 d3 ea             	shr    %cl,%rdx
  401e31:	48 89 d0             	mov    %rdx,%rax
  401e34:	83 e0 01             	and    $0x1,%eax
  401e37:	48 85 c0             	test   %rax,%rax
  401e3a:	74 1d                	je     401e59 <bs_transpose_rev+0x73>
  401e3c:	8b 45 ec             	mov    -0x14(%rbp),%eax
  401e3f:	99                   	cltd   
  401e40:	c1 ea 1a             	shr    $0x1a,%edx
  401e43:	01 d0                	add    %edx,%eax
  401e45:	83 e0 3f             	and    $0x3f,%eax
  401e48:	29 d0                	sub    %edx,%eax
  401e4a:	ba 01 00 00 00       	mov    $0x1,%edx
  401e4f:	89 c1                	mov    %eax,%ecx
  401e51:	48 d3 e2             	shl    %cl,%rdx
  401e54:	48 89 d0             	mov    %rdx,%rax
  401e57:	eb 05                	jmp    401e5e <bs_transpose_rev+0x78>
  401e59:	b8 00 00 00 00       	mov    $0x0,%eax
  401e5e:	48 89 45 f8          	mov    %rax,-0x8(%rbp)
  401e62:	8b 45 e8             	mov    -0x18(%rbp),%eax
  401e65:	8d 14 00             	lea    (%rax,%rax,1),%edx
  401e68:	83 7d ec 3f          	cmpl   $0x3f,-0x14(%rbp)
  401e6c:	0f 9f c0             	setg   %al
  401e6f:	0f b6 c0             	movzbl %al,%eax
  401e72:	01 d0                	add    %edx,%eax
  401e74:	48 98                	cltq   
  401e76:	48 8d 14 c5 00 00 00 	lea    0x0(,%rax,8),%rdx
  401e7d:	00 
  401e7e:	48 8b 45 d8          	mov    -0x28(%rbp),%rax
  401e82:	48 01 c2             	add    %rax,%rdx
  401e85:	8b 45 e8             	mov    -0x18(%rbp),%eax
  401e88:	8d 0c 00             	lea    (%rax,%rax,1),%ecx
  401e8b:	83 7d ec 3f          	cmpl   $0x3f,-0x14(%rbp)
  401e8f:	0f 9f c0             	setg   %al
  401e92:	0f b6 c0             	movzbl %al,%eax
  401e95:	01 c8                	add    %ecx,%eax
  401e97:	48 98                	cltq   
  401e99:	48 8d 0c c5 00 00 00 	lea    0x0(,%rax,8),%rcx
  401ea0:	00 
  401ea1:	48 8b 45 d8          	mov    -0x28(%rbp),%rax
  401ea5:	48 01 c8             	add    %rcx,%rax
  401ea8:	48 8b 00             	mov    (%rax),%rax
  401eab:	48 0b 45 f8          	or     -0x8(%rbp),%rax
  401eaf:	48 89 02             	mov    %rax,(%rdx)
  401eb2:	83 45 e8 01          	addl   $0x1,-0x18(%rbp)
  401eb6:	83 7d e8 3f          	cmpl   $0x3f,-0x18(%rbp)
  401eba:	0f 8e 65 ff ff ff    	jle    401e25 <bs_transpose_rev+0x3f>
  401ec0:	83 45 ec 01          	addl   $0x1,-0x14(%rbp)
  401ec4:	83 7d ec 7f          	cmpl   $0x7f,-0x14(%rbp)
  401ec8:	0f 8e 30 ff ff ff    	jle    401dfe <bs_transpose_rev+0x18>
  401ece:	5d                   	pop    %rbp
  401ecf:	c3                   	retq   

0000000000401ed0 <bs_shiftrows>:
  401ed0:	55                   	push   %rbp
  401ed1:	48 89 e5             	mov    %rsp,%rbp
  401ed4:	48 89 7d f8          	mov    %rdi,-0x8(%rbp)
  401ed8:	48 89 75 f0          	mov    %rsi,-0x10(%rbp)
  401edc:	48 8b 45 f0          	mov    -0x10(%rbp),%rax
  401ee0:	48 8b 10             	mov    (%rax),%rdx
  401ee3:	48 8b 45 f8          	mov    -0x8(%rbp),%rax
  401ee7:	48 89 10             	mov    %rdx,(%rax)
  401eea:	48 8b 45 f8          	mov    -0x8(%rbp),%rax
  401eee:	48 8d 50 08          	lea    0x8(%rax),%rdx
  401ef2:	48 8b 45 f0          	mov    -0x10(%rbp),%rax
  401ef6:	48 8b 40 08          	mov    0x8(%rax),%rax
  401efa:	48 89 02             	mov    %rax,(%rdx)
  401efd:	48 8b 45 f8          	mov    -0x8(%rbp),%rax
  401f01:	48 8d 50 10          	lea    0x10(%rax),%rdx
  401f05:	48 8b 45 f0          	mov    -0x10(%rbp),%rax
  401f09:	48 8b 40 10          	mov    0x10(%rax),%rax
  401f0d:	48 89 02             	mov    %rax,(%rdx)
  401f10:	48 8b 45 f8          	mov    -0x8(%rbp),%rax
  401f14:	48 8d 50 18          	lea    0x18(%rax),%rdx
  401f18:	48 8b 45 f0          	mov    -0x10(%rbp),%rax
  401f1c:	48 8b 40 18          	mov    0x18(%rax),%rax
  401f20:	48 89 02             	mov    %rax,(%rdx)
  401f23:	48 8b 45 f8          	mov    -0x8(%rbp),%rax
  401f27:	48 8d 50 20          	lea    0x20(%rax),%rdx
  401f2b:	48 8b 45 f0          	mov    -0x10(%rbp),%rax
  401f2f:	48 8b 40 20          	mov    0x20(%rax),%rax
  401f33:	48 89 02             	mov    %rax,(%rdx)
  401f36:	48 8b 45 f8          	mov    -0x8(%rbp),%rax
  401f3a:	48 8d 50 28          	lea    0x28(%rax),%rdx
  401f3e:	48 8b 45 f0          	mov    -0x10(%rbp),%rax
  401f42:	48 8b 40 28          	mov    0x28(%rax),%rax
  401f46:	48 89 02             	mov    %rax,(%rdx)
  401f49:	48 8b 45 f8          	mov    -0x8(%rbp),%rax
  401f4d:	48 8d 50 30          	lea    0x30(%rax),%rdx
  401f51:	48 8b 45 f0          	mov    -0x10(%rbp),%rax
  401f55:	48 8b 40 30          	mov    0x30(%rax),%rax
  401f59:	48 89 02             	mov    %rax,(%rdx)
  401f5c:	48 8b 45 f8          	mov    -0x8(%rbp),%rax
  401f60:	48 8d 50 38          	lea    0x38(%rax),%rdx
  401f64:	48 8b 45 f0          	mov    -0x10(%rbp),%rax
  401f68:	48 8b 40 38          	mov    0x38(%rax),%rax
  401f6c:	48 89 02             	mov    %rax,(%rdx)
  401f6f:	48 8b 45 f8          	mov    -0x8(%rbp),%rax
  401f73:	48 8d 50 40          	lea    0x40(%rax),%rdx
  401f77:	48 8b 45 f0          	mov    -0x10(%rbp),%rax
  401f7b:	48 8b 40 40          	mov    0x40(%rax),%rax
  401f7f:	48 89 02             	mov    %rax,(%rdx)
  401f82:	48 8b 45 f8          	mov    -0x8(%rbp),%rax
  401f86:	48 8d 50 48          	lea    0x48(%rax),%rdx
  401f8a:	48 8b 45 f0          	mov    -0x10(%rbp),%rax
  401f8e:	48 8b 40 48          	mov    0x48(%rax),%rax
  401f92:	48 89 02             	mov    %rax,(%rdx)
  401f95:	48 8b 45 f8          	mov    -0x8(%rbp),%rax
  401f99:	48 8d 50 50          	lea    0x50(%rax),%rdx
  401f9d:	48 8b 45 f0          	mov    -0x10(%rbp),%rax
  401fa1:	48 8b 40 50          	mov    0x50(%rax),%rax
  401fa5:	48 89 02             	mov    %rax,(%rdx)
  401fa8:	48 8b 45 f8          	mov    -0x8(%rbp),%rax
  401fac:	48 8d 50 58          	lea    0x58(%rax),%rdx
  401fb0:	48 8b 45 f0          	mov    -0x10(%rbp),%rax
  401fb4:	48 8b 40 58          	mov    0x58(%rax),%rax
  401fb8:	48 89 02             	mov    %rax,(%rdx)
  401fbb:	48 8b 45 f8          	mov    -0x8(%rbp),%rax
  401fbf:	48 8d 50 60          	lea    0x60(%rax),%rdx
  401fc3:	48 8b 45 f0          	mov    -0x10(%rbp),%rax
  401fc7:	48 8b 40 60          	mov    0x60(%rax),%rax
  401fcb:	48 89 02             	mov    %rax,(%rdx)
  401fce:	48 8b 45 f8          	mov    -0x8(%rbp),%rax
  401fd2:	48 8d 50 68          	lea    0x68(%rax),%rdx
  401fd6:	48 8b 45 f0          	mov    -0x10(%rbp),%rax
  401fda:	48 8b 40 68          	mov    0x68(%rax),%rax
  401fde:	48 89 02             	mov    %rax,(%rdx)
  401fe1:	48 8b 45 f8          	mov    -0x8(%rbp),%rax
  401fe5:	48 8d 50 70          	lea    0x70(%rax),%rdx
  401fe9:	48 8b 45 f0          	mov    -0x10(%rbp),%rax
  401fed:	48 8b 40 70          	mov    0x70(%rax),%rax
  401ff1:	48 89 02             	mov    %rax,(%rdx)
  401ff4:	48 8b 45 f8          	mov    -0x8(%rbp),%rax
  401ff8:	48 8d 50 78          	lea    0x78(%rax),%rdx
  401ffc:	48 8b 45 f0          	mov    -0x10(%rbp),%rax
  402000:	48 8b 40 78          	mov    0x78(%rax),%rax
  402004:	48 89 02             	mov    %rax,(%rdx)
  402007:	48 8b 45 f8          	mov    -0x8(%rbp),%rax
  40200b:	48 8d 90 80 00 00 00 	lea    0x80(%rax),%rdx
  402012:	48 8b 45 f0          	mov    -0x10(%rbp),%rax
  402016:	48 8b 80 80 00 00 00 	mov    0x80(%rax),%rax
  40201d:	48 89 02             	mov    %rax,(%rdx)
  402020:	48 8b 45 f8          	mov    -0x8(%rbp),%rax
  402024:	48 8d 90 88 00 00 00 	lea    0x88(%rax),%rdx
  40202b:	48 8b 45 f0          	mov    -0x10(%rbp),%rax
  40202f:	48 8b 80 88 00 00 00 	mov    0x88(%rax),%rax
  402036:	48 89 02             	mov    %rax,(%rdx)
  402039:	48 8b 45 f8          	mov    -0x8(%rbp),%rax
  40203d:	48 8d 90 90 00 00 00 	lea    0x90(%rax),%rdx
  402044:	48 8b 45 f0          	mov    -0x10(%rbp),%rax
  402048:	48 8b 80 90 00 00 00 	mov    0x90(%rax),%rax
  40204f:	48 89 02             	mov    %rax,(%rdx)
  402052:	48 8b 45 f8          	mov    -0x8(%rbp),%rax
  402056:	48 8d 90 98 00 00 00 	lea    0x98(%rax),%rdx
  40205d:	48 8b 45 f0          	mov    -0x10(%rbp),%rax
  402061:	48 8b 80 98 00 00 00 	mov    0x98(%rax),%rax
  402068:	48 89 02             	mov    %rax,(%rdx)
  40206b:	48 8b 45 f8          	mov    -0x8(%rbp),%rax
  40206f:	48 8d 90 a0 00 00 00 	lea    0xa0(%rax),%rdx
  402076:	48 8b 45 f0          	mov    -0x10(%rbp),%rax
  40207a:	48 8b 80 a0 00 00 00 	mov    0xa0(%rax),%rax
  402081:	48 89 02             	mov    %rax,(%rdx)
  402084:	48 8b 45 f8          	mov    -0x8(%rbp),%rax
  402088:	48 8d 90 a8 00 00 00 	lea    0xa8(%rax),%rdx
  40208f:	48 8b 45 f0          	mov    -0x10(%rbp),%rax
  402093:	48 8b 80 a8 00 00 00 	mov    0xa8(%rax),%rax
  40209a:	48 89 02             	mov    %rax,(%rdx)
  40209d:	48 8b 45 f8          	mov    -0x8(%rbp),%rax
  4020a1:	48 8d 90 b0 00 00 00 	lea    0xb0(%rax),%rdx
  4020a8:	48 8b 45 f0          	mov    -0x10(%rbp),%rax
  4020ac:	48 8b 80 b0 00 00 00 	mov    0xb0(%rax),%rax
  4020b3:	48 89 02             	mov    %rax,(%rdx)
  4020b6:	48 8b 45 f8          	mov    -0x8(%rbp),%rax
  4020ba:	48 8d 90 b8 00 00 00 	lea    0xb8(%rax),%rdx
  4020c1:	48 8b 45 f0          	mov    -0x10(%rbp),%rax
  4020c5:	48 8b 80 b8 00 00 00 	mov    0xb8(%rax),%rax
  4020cc:	48 89 02             	mov    %rax,(%rdx)
  4020cf:	48 8b 45 f8          	mov    -0x8(%rbp),%rax
  4020d3:	48 8d 90 c0 00 00 00 	lea    0xc0(%rax),%rdx
  4020da:	48 8b 45 f0          	mov    -0x10(%rbp),%rax
  4020de:	48 8b 80 c0 00 00 00 	mov    0xc0(%rax),%rax
  4020e5:	48 89 02             	mov    %rax,(%rdx)
  4020e8:	48 8b 45 f8          	mov    -0x8(%rbp),%rax
  4020ec:	48 8d 90 c8 00 00 00 	lea    0xc8(%rax),%rdx
  4020f3:	48 8b 45 f0          	mov    -0x10(%rbp),%rax
  4020f7:	48 8b 80 c8 00 00 00 	mov    0xc8(%rax),%rax
  4020fe:	48 89 02             	mov    %rax,(%rdx)
  402101:	48 8b 45 f8          	mov    -0x8(%rbp),%rax
  402105:	48 8d 90 d0 00 00 00 	lea    0xd0(%rax),%rdx
  40210c:	48 8b 45 f0          	mov    -0x10(%rbp),%rax
  402110:	48 8b 80 d0 00 00 00 	mov    0xd0(%rax),%rax
  402117:	48 89 02             	mov    %rax,(%rdx)
  40211a:	48 8b 45 f8          	mov    -0x8(%rbp),%rax
  40211e:	48 8d 90 d8 00 00 00 	lea    0xd8(%rax),%rdx
  402125:	48 8b 45 f0          	mov    -0x10(%rbp),%rax
  402129:	48 8b 80 d8 00 00 00 	mov    0xd8(%rax),%rax
  402130:	48 89 02             	mov    %rax,(%rdx)
  402133:	48 8b 45 f8          	mov    -0x8(%rbp),%rax
  402137:	48 8d 90 e0 00 00 00 	lea    0xe0(%rax),%rdx
  40213e:	48 8b 45 f0          	mov    -0x10(%rbp),%rax
  402142:	48 8b 80 e0 00 00 00 	mov    0xe0(%rax),%rax
  402149:	48 89 02             	mov    %rax,(%rdx)
  40214c:	48 8b 45 f8          	mov    -0x8(%rbp),%rax
  402150:	48 8d 90 e8 00 00 00 	lea    0xe8(%rax),%rdx
  402157:	48 8b 45 f0          	mov    -0x10(%rbp),%rax
  40215b:	48 8b 80 e8 00 00 00 	mov    0xe8(%rax),%rax
  402162:	48 89 02             	mov    %rax,(%rdx)
  402165:	48 8b 45 f8          	mov    -0x8(%rbp),%rax
  402169:	48 8d 90 f0 00 00 00 	lea    0xf0(%rax),%rdx
  402170:	48 8b 45 f0          	mov    -0x10(%rbp),%rax
  402174:	48 8b 80 f0 00 00 00 	mov    0xf0(%rax),%rax
  40217b:	48 89 02             	mov    %rax,(%rdx)
  40217e:	48 8b 45 f8          	mov    -0x8(%rbp),%rax
  402182:	48 8d 90 f8 00 00 00 	lea    0xf8(%rax),%rdx
  402189:	48 8b 45 f0          	mov    -0x10(%rbp),%rax
  40218d:	48 8b 80 f8 00 00 00 	mov    0xf8(%rax),%rax
  402194:	48 89 02             	mov    %rax,(%rdx)
  402197:	48 8b 45 f8          	mov    -0x8(%rbp),%rax
  40219b:	48 8d 90 00 01 00 00 	lea    0x100(%rax),%rdx
  4021a2:	48 8b 45 f0          	mov    -0x10(%rbp),%rax
  4021a6:	48 8b 80 40 01 00 00 	mov    0x140(%rax),%rax
  4021ad:	48 89 02             	mov    %rax,(%rdx)
  4021b0:	48 8b 45 f8          	mov    -0x8(%rbp),%rax
  4021b4:	48 8d 90 08 01 00 00 	lea    0x108(%rax),%rdx
  4021bb:	48 8b 45 f0          	mov    -0x10(%rbp),%rax
  4021bf:	48 8b 80 48 01 00 00 	mov    0x148(%rax),%rax
  4021c6:	48 89 02             	mov    %rax,(%rdx)
  4021c9:	48 8b 45 f8          	mov    -0x8(%rbp),%rax
  4021cd:	48 8d 90 10 01 00 00 	lea    0x110(%rax),%rdx
  4021d4:	48 8b 45 f0          	mov    -0x10(%rbp),%rax
  4021d8:	48 8b 80 50 01 00 00 	mov    0x150(%rax),%rax
  4021df:	48 89 02             	mov    %rax,(%rdx)
  4021e2:	48 8b 45 f8          	mov    -0x8(%rbp),%rax
  4021e6:	48 8d 90 18 01 00 00 	lea    0x118(%rax),%rdx
  4021ed:	48 8b 45 f0          	mov    -0x10(%rbp),%rax
  4021f1:	48 8b 80 58 01 00 00 	mov    0x158(%rax),%rax
  4021f8:	48 89 02             	mov    %rax,(%rdx)
  4021fb:	48 8b 45 f8          	mov    -0x8(%rbp),%rax
  4021ff:	48 8d 90 20 01 00 00 	lea    0x120(%rax),%rdx
  402206:	48 8b 45 f0          	mov    -0x10(%rbp),%rax
  40220a:	48 8b 80 60 01 00 00 	mov    0x160(%rax),%rax
  402211:	48 89 02             	mov    %rax,(%rdx)
  402214:	48 8b 45 f8          	mov    -0x8(%rbp),%rax
  402218:	48 8d 90 28 01 00 00 	lea    0x128(%rax),%rdx
  40221f:	48 8b 45 f0          	mov    -0x10(%rbp),%rax
  402223:	48 8b 80 68 01 00 00 	mov    0x168(%rax),%rax
  40222a:	48 89 02             	mov    %rax,(%rdx)
  40222d:	48 8b 45 f8          	mov    -0x8(%rbp),%rax
  402231:	48 8d 90 30 01 00 00 	lea    0x130(%rax),%rdx
  402238:	48 8b 45 f0          	mov    -0x10(%rbp),%rax
  40223c:	48 8b 80 70 01 00 00 	mov    0x170(%rax),%rax
  402243:	48 89 02             	mov    %rax,(%rdx)
  402246:	48 8b 45 f8          	mov    -0x8(%rbp),%rax
  40224a:	48 8d 90 38 01 00 00 	lea    0x138(%rax),%rdx
  402251:	48 8b 45 f0          	mov    -0x10(%rbp),%rax
  402255:	48 8b 80 78 01 00 00 	mov    0x178(%rax),%rax
  40225c:	48 89 02             	mov    %rax,(%rdx)
  40225f:	48 8b 45 f8          	mov    -0x8(%rbp),%rax
  402263:	48 8d 90 40 01 00 00 	lea    0x140(%rax),%rdx
  40226a:	48 8b 45 f0          	mov    -0x10(%rbp),%rax
  40226e:	48 8b 80 80 01 00 00 	mov    0x180(%rax),%rax
  402275:	48 89 02             	mov    %rax,(%rdx)
  402278:	48 8b 45 f8          	mov    -0x8(%rbp),%rax
  40227c:	48 8d 90 48 01 00 00 	lea    0x148(%rax),%rdx
  402283:	48 8b 45 f0          	mov    -0x10(%rbp),%rax
  402287:	48 8b 80 88 01 00 00 	mov    0x188(%rax),%rax
  40228e:	48 89 02             	mov    %rax,(%rdx)
  402291:	48 8b 45 f8          	mov    -0x8(%rbp),%rax
  402295:	48 8d 90 50 01 00 00 	lea    0x150(%rax),%rdx
  40229c:	48 8b 45 f0          	mov    -0x10(%rbp),%rax
  4022a0:	48 8b 80 90 01 00 00 	mov    0x190(%rax),%rax
  4022a7:	48 89 02             	mov    %rax,(%rdx)
  4022aa:	48 8b 45 f8          	mov    -0x8(%rbp),%rax
  4022ae:	48 8d 90 58 01 00 00 	lea    0x158(%rax),%rdx
  4022b5:	48 8b 45 f0          	mov    -0x10(%rbp),%rax
  4022b9:	48 8b 80 98 01 00 00 	mov    0x198(%rax),%rax
  4022c0:	48 89 02             	mov    %rax,(%rdx)
  4022c3:	48 8b 45 f8          	mov    -0x8(%rbp),%rax
  4022c7:	48 8d 90 60 01 00 00 	lea    0x160(%rax),%rdx
  4022ce:	48 8b 45 f0          	mov    -0x10(%rbp),%rax
  4022d2:	48 8b 80 a0 01 00 00 	mov    0x1a0(%rax),%rax
  4022d9:	48 89 02             	mov    %rax,(%rdx)
  4022dc:	48 8b 45 f8          	mov    -0x8(%rbp),%rax
  4022e0:	48 8d 90 68 01 00 00 	lea    0x168(%rax),%rdx
  4022e7:	48 8b 45 f0          	mov    -0x10(%rbp),%rax
  4022eb:	48 8b 80 a8 01 00 00 	mov    0x1a8(%rax),%rax
  4022f2:	48 89 02             	mov    %rax,(%rdx)
  4022f5:	48 8b 45 f8          	mov    -0x8(%rbp),%rax
  4022f9:	48 8d 90 70 01 00 00 	lea    0x170(%rax),%rdx
  402300:	48 8b 45 f0          	mov    -0x10(%rbp),%rax
  402304:	48 8b 80 b0 01 00 00 	mov    0x1b0(%rax),%rax
  40230b:	48 89 02             	mov    %rax,(%rdx)
  40230e:	48 8b 45 f8          	mov    -0x8(%rbp),%rax
  402312:	48 8d 90 78 01 00 00 	lea    0x178(%rax),%rdx
  402319:	48 8b 45 f0          	mov    -0x10(%rbp),%rax
  40231d:	48 8b 80 b8 01 00 00 	mov    0x1b8(%rax),%rax
  402324:	48 89 02             	mov    %rax,(%rdx)
  402327:	48 8b 45 f8          	mov    -0x8(%rbp),%rax
  40232b:	48 8d 90 80 01 00 00 	lea    0x180(%rax),%rdx
  402332:	48 8b 45 f0          	mov    -0x10(%rbp),%rax
  402336:	48 8b 80 c0 01 00 00 	mov    0x1c0(%rax),%rax
  40233d:	48 89 02             	mov    %rax,(%rdx)
  402340:	48 8b 45 f8          	mov    -0x8(%rbp),%rax
  402344:	48 8d 90 88 01 00 00 	lea    0x188(%rax),%rdx
  40234b:	48 8b 45 f0          	mov    -0x10(%rbp),%rax
  40234f:	48 8b 80 c8 01 00 00 	mov    0x1c8(%rax),%rax
  402356:	48 89 02             	mov    %rax,(%rdx)
  402359:	48 8b 45 f8          	mov    -0x8(%rbp),%rax
  40235d:	48 8d 90 90 01 00 00 	lea    0x190(%rax),%rdx
  402364:	48 8b 45 f0          	mov    -0x10(%rbp),%rax
  402368:	48 8b 80 d0 01 00 00 	mov    0x1d0(%rax),%rax
  40236f:	48 89 02             	mov    %rax,(%rdx)
  402372:	48 8b 45 f8          	mov    -0x8(%rbp),%rax
  402376:	48 8d 90 98 01 00 00 	lea    0x198(%rax),%rdx
  40237d:	48 8b 45 f0          	mov    -0x10(%rbp),%rax
  402381:	48 8b 80 d8 01 00 00 	mov    0x1d8(%rax),%rax
  402388:	48 89 02             	mov    %rax,(%rdx)
  40238b:	48 8b 45 f8          	mov    -0x8(%rbp),%rax
  40238f:	48 8d 90 a0 01 00 00 	lea    0x1a0(%rax),%rdx
  402396:	48 8b 45 f0          	mov    -0x10(%rbp),%rax
  40239a:	48 8b 80 e0 01 00 00 	mov    0x1e0(%rax),%rax
  4023a1:	48 89 02             	mov    %rax,(%rdx)
  4023a4:	48 8b 45 f8          	mov    -0x8(%rbp),%rax
  4023a8:	48 8d 90 a8 01 00 00 	lea    0x1a8(%rax),%rdx
  4023af:	48 8b 45 f0          	mov    -0x10(%rbp),%rax
  4023b3:	48 8b 80 e8 01 00 00 	mov    0x1e8(%rax),%rax
  4023ba:	48 89 02             	mov    %rax,(%rdx)
  4023bd:	48 8b 45 f8          	mov    -0x8(%rbp),%rax
  4023c1:	48 8d 90 b0 01 00 00 	lea    0x1b0(%rax),%rdx
  4023c8:	48 8b 45 f0          	mov    -0x10(%rbp),%rax
  4023cc:	48 8b 80 f0 01 00 00 	mov    0x1f0(%rax),%rax
  4023d3:	48 89 02             	mov    %rax,(%rdx)
  4023d6:	48 8b 45 f8          	mov    -0x8(%rbp),%rax
  4023da:	48 8d 90 b8 01 00 00 	lea    0x1b8(%rax),%rdx
  4023e1:	48 8b 45 f0          	mov    -0x10(%rbp),%rax
  4023e5:	48 8b 80 f8 01 00 00 	mov    0x1f8(%rax),%rax
  4023ec:	48 89 02             	mov    %rax,(%rdx)
  4023ef:	48 8b 45 f8          	mov    -0x8(%rbp),%rax
  4023f3:	48 8d 90 c0 01 00 00 	lea    0x1c0(%rax),%rdx
  4023fa:	48 8b 45 f0          	mov    -0x10(%rbp),%rax
  4023fe:	48 8b 80 00 01 00 00 	mov    0x100(%rax),%rax
  402405:	48 89 02             	mov    %rax,(%rdx)
  402408:	48 8b 45 f8          	mov    -0x8(%rbp),%rax
  40240c:	48 8d 90 c8 01 00 00 	lea    0x1c8(%rax),%rdx
  402413:	48 8b 45 f0          	mov    -0x10(%rbp),%rax
  402417:	48 8b 80 08 01 00 00 	mov    0x108(%rax),%rax
  40241e:	48 89 02             	mov    %rax,(%rdx)
  402421:	48 8b 45 f8          	mov    -0x8(%rbp),%rax
  402425:	48 8d 90 d0 01 00 00 	lea    0x1d0(%rax),%rdx
  40242c:	48 8b 45 f0          	mov    -0x10(%rbp),%rax
  402430:	48 8b 80 10 01 00 00 	mov    0x110(%rax),%rax
  402437:	48 89 02             	mov    %rax,(%rdx)
  40243a:	48 8b 45 f8          	mov    -0x8(%rbp),%rax
  40243e:	48 8d 90 d8 01 00 00 	lea    0x1d8(%rax),%rdx
  402445:	48 8b 45 f0          	mov    -0x10(%rbp),%rax
  402449:	48 8b 80 18 01 00 00 	mov    0x118(%rax),%rax
  402450:	48 89 02             	mov    %rax,(%rdx)
  402453:	48 8b 45 f8          	mov    -0x8(%rbp),%rax
  402457:	48 8d 90 e0 01 00 00 	lea    0x1e0(%rax),%rdx
  40245e:	48 8b 45 f0          	mov    -0x10(%rbp),%rax
  402462:	48 8b 80 20 01 00 00 	mov    0x120(%rax),%rax
  402469:	48 89 02             	mov    %rax,(%rdx)
  40246c:	48 8b 45 f8          	mov    -0x8(%rbp),%rax
  402470:	48 8d 90 e8 01 00 00 	lea    0x1e8(%rax),%rdx
  402477:	48 8b 45 f0          	mov    -0x10(%rbp),%rax
  40247b:	48 8b 80 28 01 00 00 	mov    0x128(%rax),%rax
  402482:	48 89 02             	mov    %rax,(%rdx)
  402485:	48 8b 45 f8          	mov    -0x8(%rbp),%rax
  402489:	48 8d 90 f0 01 00 00 	lea    0x1f0(%rax),%rdx
  402490:	48 8b 45 f0          	mov    -0x10(%rbp),%rax
  402494:	48 8b 80 30 01 00 00 	mov    0x130(%rax),%rax
  40249b:	48 89 02             	mov    %rax,(%rdx)
  40249e:	48 8b 45 f8          	mov    -0x8(%rbp),%rax
  4024a2:	48 8d 90 f8 01 00 00 	lea    0x1f8(%rax),%rdx
  4024a9:	48 8b 45 f0          	mov    -0x10(%rbp),%rax
  4024ad:	48 8b 80 38 01 00 00 	mov    0x138(%rax),%rax
  4024b4:	48 89 02             	mov    %rax,(%rdx)
  4024b7:	48 8b 45 f8          	mov    -0x8(%rbp),%rax
  4024bb:	48 8d 90 00 02 00 00 	lea    0x200(%rax),%rdx
  4024c2:	48 8b 45 f0          	mov    -0x10(%rbp),%rax
  4024c6:	48 8b 80 80 02 00 00 	mov    0x280(%rax),%rax
  4024cd:	48 89 02             	mov    %rax,(%rdx)
  4024d0:	48 8b 45 f8          	mov    -0x8(%rbp),%rax
  4024d4:	48 8d 90 08 02 00 00 	lea    0x208(%rax),%rdx
  4024db:	48 8b 45 f0          	mov    -0x10(%rbp),%rax
  4024df:	48 8b 80 88 02 00 00 	mov    0x288(%rax),%rax
  4024e6:	48 89 02             	mov    %rax,(%rdx)
  4024e9:	48 8b 45 f8          	mov    -0x8(%rbp),%rax
  4024ed:	48 8d 90 10 02 00 00 	lea    0x210(%rax),%rdx
  4024f4:	48 8b 45 f0          	mov    -0x10(%rbp),%rax
  4024f8:	48 8b 80 90 02 00 00 	mov    0x290(%rax),%rax
  4024ff:	48 89 02             	mov    %rax,(%rdx)
  402502:	48 8b 45 f8          	mov    -0x8(%rbp),%rax
  402506:	48 8d 90 18 02 00 00 	lea    0x218(%rax),%rdx
  40250d:	48 8b 45 f0          	mov    -0x10(%rbp),%rax
  402511:	48 8b 80 98 02 00 00 	mov    0x298(%rax),%rax
  402518:	48 89 02             	mov    %rax,(%rdx)
  40251b:	48 8b 45 f8          	mov    -0x8(%rbp),%rax
  40251f:	48 8d 90 20 02 00 00 	lea    0x220(%rax),%rdx
  402526:	48 8b 45 f0          	mov    -0x10(%rbp),%rax
  40252a:	48 8b 80 a0 02 00 00 	mov    0x2a0(%rax),%rax
  402531:	48 89 02             	mov    %rax,(%rdx)
  402534:	48 8b 45 f8          	mov    -0x8(%rbp),%rax
  402538:	48 8d 90 28 02 00 00 	lea    0x228(%rax),%rdx
  40253f:	48 8b 45 f0          	mov    -0x10(%rbp),%rax
  402543:	48 8b 80 a8 02 00 00 	mov    0x2a8(%rax),%rax
  40254a:	48 89 02             	mov    %rax,(%rdx)
  40254d:	48 8b 45 f8          	mov    -0x8(%rbp),%rax
  402551:	48 8d 90 30 02 00 00 	lea    0x230(%rax),%rdx
  402558:	48 8b 45 f0          	mov    -0x10(%rbp),%rax
  40255c:	48 8b 80 b0 02 00 00 	mov    0x2b0(%rax),%rax
  402563:	48 89 02             	mov    %rax,(%rdx)
  402566:	48 8b 45 f8          	mov    -0x8(%rbp),%rax
  40256a:	48 8d 90 38 02 00 00 	lea    0x238(%rax),%rdx
  402571:	48 8b 45 f0          	mov    -0x10(%rbp),%rax
  402575:	48 8b 80 b8 02 00 00 	mov    0x2b8(%rax),%rax
  40257c:	48 89 02             	mov    %rax,(%rdx)
  40257f:	48 8b 45 f8          	mov    -0x8(%rbp),%rax
  402583:	48 8d 90 40 02 00 00 	lea    0x240(%rax),%rdx
  40258a:	48 8b 45 f0          	mov    -0x10(%rbp),%rax
  40258e:	48 8b 80 c0 02 00 00 	mov    0x2c0(%rax),%rax
  402595:	48 89 02             	mov    %rax,(%rdx)
  402598:	48 8b 45 f8          	mov    -0x8(%rbp),%rax
  40259c:	48 8d 90 48 02 00 00 	lea    0x248(%rax),%rdx
  4025a3:	48 8b 45 f0          	mov    -0x10(%rbp),%rax
  4025a7:	48 8b 80 c8 02 00 00 	mov    0x2c8(%rax),%rax
  4025ae:	48 89 02             	mov    %rax,(%rdx)
  4025b1:	48 8b 45 f8          	mov    -0x8(%rbp),%rax
  4025b5:	48 8d 90 50 02 00 00 	lea    0x250(%rax),%rdx
  4025bc:	48 8b 45 f0          	mov    -0x10(%rbp),%rax
  4025c0:	48 8b 80 d0 02 00 00 	mov    0x2d0(%rax),%rax
  4025c7:	48 89 02             	mov    %rax,(%rdx)
  4025ca:	48 8b 45 f8          	mov    -0x8(%rbp),%rax
  4025ce:	48 8d 90 58 02 00 00 	lea    0x258(%rax),%rdx
  4025d5:	48 8b 45 f0          	mov    -0x10(%rbp),%rax
  4025d9:	48 8b 80 d8 02 00 00 	mov    0x2d8(%rax),%rax
  4025e0:	48 89 02             	mov    %rax,(%rdx)
  4025e3:	48 8b 45 f8          	mov    -0x8(%rbp),%rax
  4025e7:	48 8d 90 60 02 00 00 	lea    0x260(%rax),%rdx
  4025ee:	48 8b 45 f0          	mov    -0x10(%rbp),%rax
  4025f2:	48 8b 80 e0 02 00 00 	mov    0x2e0(%rax),%rax
  4025f9:	48 89 02             	mov    %rax,(%rdx)
  4025fc:	48 8b 45 f8          	mov    -0x8(%rbp),%rax
  402600:	48 8d 90 68 02 00 00 	lea    0x268(%rax),%rdx
  402607:	48 8b 45 f0          	mov    -0x10(%rbp),%rax
  40260b:	48 8b 80 e8 02 00 00 	mov    0x2e8(%rax),%rax
  402612:	48 89 02             	mov    %rax,(%rdx)
  402615:	48 8b 45 f8          	mov    -0x8(%rbp),%rax
  402619:	48 8d 90 70 02 00 00 	lea    0x270(%rax),%rdx
  402620:	48 8b 45 f0          	mov    -0x10(%rbp),%rax
  402624:	48 8b 80 f0 02 00 00 	mov    0x2f0(%rax),%rax
  40262b:	48 89 02             	mov    %rax,(%rdx)
  40262e:	48 8b 45 f8          	mov    -0x8(%rbp),%rax
  402632:	48 8d 90 78 02 00 00 	lea    0x278(%rax),%rdx
  402639:	48 8b 45 f0          	mov    -0x10(%rbp),%rax
  40263d:	48 8b 80 f8 02 00 00 	mov    0x2f8(%rax),%rax
  402644:	48 89 02             	mov    %rax,(%rdx)
  402647:	48 8b 45 f8          	mov    -0x8(%rbp),%rax
  40264b:	48 8d 90 80 02 00 00 	lea    0x280(%rax),%rdx
  402652:	48 8b 45 f0          	mov    -0x10(%rbp),%rax
  402656:	48 8b 80 00 02 00 00 	mov    0x200(%rax),%rax
  40265d:	48 89 02             	mov    %rax,(%rdx)
  402660:	48 8b 45 f8          	mov    -0x8(%rbp),%rax
  402664:	48 8d 90 88 02 00 00 	lea    0x288(%rax),%rdx
  40266b:	48 8b 45 f0          	mov    -0x10(%rbp),%rax
  40266f:	48 8b 80 08 02 00 00 	mov    0x208(%rax),%rax
  402676:	48 89 02             	mov    %rax,(%rdx)
  402679:	48 8b 45 f8          	mov    -0x8(%rbp),%rax
  40267d:	48 8d 90 90 02 00 00 	lea    0x290(%rax),%rdx
  402684:	48 8b 45 f0          	mov    -0x10(%rbp),%rax
  402688:	48 8b 80 10 02 00 00 	mov    0x210(%rax),%rax
  40268f:	48 89 02             	mov    %rax,(%rdx)
  402692:	48 8b 45 f8          	mov    -0x8(%rbp),%rax
  402696:	48 8d 90 98 02 00 00 	lea    0x298(%rax),%rdx
  40269d:	48 8b 45 f0          	mov    -0x10(%rbp),%rax
  4026a1:	48 8b 80 18 02 00 00 	mov    0x218(%rax),%rax
  4026a8:	48 89 02             	mov    %rax,(%rdx)
  4026ab:	48 8b 45 f8          	mov    -0x8(%rbp),%rax
  4026af:	48 8d 90 a0 02 00 00 	lea    0x2a0(%rax),%rdx
  4026b6:	48 8b 45 f0          	mov    -0x10(%rbp),%rax
  4026ba:	48 8b 80 20 02 00 00 	mov    0x220(%rax),%rax
  4026c1:	48 89 02             	mov    %rax,(%rdx)
  4026c4:	48 8b 45 f8          	mov    -0x8(%rbp),%rax
  4026c8:	48 8d 90 a8 02 00 00 	lea    0x2a8(%rax),%rdx
  4026cf:	48 8b 45 f0          	mov    -0x10(%rbp),%rax
  4026d3:	48 8b 80 28 02 00 00 	mov    0x228(%rax),%rax
  4026da:	48 89 02             	mov    %rax,(%rdx)
  4026dd:	48 8b 45 f8          	mov    -0x8(%rbp),%rax
  4026e1:	48 8d 90 b0 02 00 00 	lea    0x2b0(%rax),%rdx
  4026e8:	48 8b 45 f0          	mov    -0x10(%rbp),%rax
  4026ec:	48 8b 80 30 02 00 00 	mov    0x230(%rax),%rax
  4026f3:	48 89 02             	mov    %rax,(%rdx)
  4026f6:	48 8b 45 f8          	mov    -0x8(%rbp),%rax
  4026fa:	48 8d 90 b8 02 00 00 	lea    0x2b8(%rax),%rdx
  402701:	48 8b 45 f0          	mov    -0x10(%rbp),%rax
  402705:	48 8b 80 38 02 00 00 	mov    0x238(%rax),%rax
  40270c:	48 89 02             	mov    %rax,(%rdx)
  40270f:	48 8b 45 f8          	mov    -0x8(%rbp),%rax
  402713:	48 8d 90 c0 02 00 00 	lea    0x2c0(%rax),%rdx
  40271a:	48 8b 45 f0          	mov    -0x10(%rbp),%rax
  40271e:	48 8b 80 40 02 00 00 	mov    0x240(%rax),%rax
  402725:	48 89 02             	mov    %rax,(%rdx)
  402728:	48 8b 45 f8          	mov    -0x8(%rbp),%rax
  40272c:	48 8d 90 c8 02 00 00 	lea    0x2c8(%rax),%rdx
  402733:	48 8b 45 f0          	mov    -0x10(%rbp),%rax
  402737:	48 8b 80 48 02 00 00 	mov    0x248(%rax),%rax
  40273e:	48 89 02             	mov    %rax,(%rdx)
  402741:	48 8b 45 f8          	mov    -0x8(%rbp),%rax
  402745:	48 8d 90 d0 02 00 00 	lea    0x2d0(%rax),%rdx
  40274c:	48 8b 45 f0          	mov    -0x10(%rbp),%rax
  402750:	48 8b 80 50 02 00 00 	mov    0x250(%rax),%rax
  402757:	48 89 02             	mov    %rax,(%rdx)
  40275a:	48 8b 45 f8          	mov    -0x8(%rbp),%rax
  40275e:	48 8d 90 d8 02 00 00 	lea    0x2d8(%rax),%rdx
  402765:	48 8b 45 f0          	mov    -0x10(%rbp),%rax
  402769:	48 8b 80 58 02 00 00 	mov    0x258(%rax),%rax
  402770:	48 89 02             	mov    %rax,(%rdx)
  402773:	48 8b 45 f8          	mov    -0x8(%rbp),%rax
  402777:	48 8d 90 e0 02 00 00 	lea    0x2e0(%rax),%rdx
  40277e:	48 8b 45 f0          	mov    -0x10(%rbp),%rax
  402782:	48 8b 80 60 02 00 00 	mov    0x260(%rax),%rax
  402789:	48 89 02             	mov    %rax,(%rdx)
  40278c:	48 8b 45 f8          	mov    -0x8(%rbp),%rax
  402790:	48 8d 90 e8 02 00 00 	lea    0x2e8(%rax),%rdx
  402797:	48 8b 45 f0          	mov    -0x10(%rbp),%rax
  40279b:	48 8b 80 68 02 00 00 	mov    0x268(%rax),%rax
  4027a2:	48 89 02             	mov    %rax,(%rdx)
  4027a5:	48 8b 45 f8          	mov    -0x8(%rbp),%rax
  4027a9:	48 8d 90 f0 02 00 00 	lea    0x2f0(%rax),%rdx
  4027b0:	48 8b 45 f0          	mov    -0x10(%rbp),%rax
  4027b4:	48 8b 80 70 02 00 00 	mov    0x270(%rax),%rax
  4027bb:	48 89 02             	mov    %rax,(%rdx)
  4027be:	48 8b 45 f8          	mov    -0x8(%rbp),%rax
  4027c2:	48 8d 90 f8 02 00 00 	lea    0x2f8(%rax),%rdx
  4027c9:	48 8b 45 f0          	mov    -0x10(%rbp),%rax
  4027cd:	48 8b 80 78 02 00 00 	mov    0x278(%rax),%rax
  4027d4:	48 89 02             	mov    %rax,(%rdx)
  4027d7:	48 8b 45 f8          	mov    -0x8(%rbp),%rax
  4027db:	48 8d 90 00 03 00 00 	lea    0x300(%rax),%rdx
  4027e2:	48 8b 45 f0          	mov    -0x10(%rbp),%rax
  4027e6:	48 8b 80 c0 03 00 00 	mov    0x3c0(%rax),%rax
  4027ed:	48 89 02             	mov    %rax,(%rdx)
  4027f0:	48 8b 45 f8          	mov    -0x8(%rbp),%rax
  4027f4:	48 8d 90 08 03 00 00 	lea    0x308(%rax),%rdx
  4027fb:	48 8b 45 f0          	mov    -0x10(%rbp),%rax
  4027ff:	48 8b 80 c8 03 00 00 	mov    0x3c8(%rax),%rax
  402806:	48 89 02             	mov    %rax,(%rdx)
  402809:	48 8b 45 f8          	mov    -0x8(%rbp),%rax
  40280d:	48 8d 90 10 03 00 00 	lea    0x310(%rax),%rdx
  402814:	48 8b 45 f0          	mov    -0x10(%rbp),%rax
  402818:	48 8b 80 d0 03 00 00 	mov    0x3d0(%rax),%rax
  40281f:	48 89 02             	mov    %rax,(%rdx)
  402822:	48 8b 45 f8          	mov    -0x8(%rbp),%rax
  402826:	48 8d 90 18 03 00 00 	lea    0x318(%rax),%rdx
  40282d:	48 8b 45 f0          	mov    -0x10(%rbp),%rax
  402831:	48 8b 80 d8 03 00 00 	mov    0x3d8(%rax),%rax
  402838:	48 89 02             	mov    %rax,(%rdx)
  40283b:	48 8b 45 f8          	mov    -0x8(%rbp),%rax
  40283f:	48 8d 90 20 03 00 00 	lea    0x320(%rax),%rdx
  402846:	48 8b 45 f0          	mov    -0x10(%rbp),%rax
  40284a:	48 8b 80 e0 03 00 00 	mov    0x3e0(%rax),%rax
  402851:	48 89 02             	mov    %rax,(%rdx)
  402854:	48 8b 45 f8          	mov    -0x8(%rbp),%rax
  402858:	48 8d 90 28 03 00 00 	lea    0x328(%rax),%rdx
  40285f:	48 8b 45 f0          	mov    -0x10(%rbp),%rax
  402863:	48 8b 80 e8 03 00 00 	mov    0x3e8(%rax),%rax
  40286a:	48 89 02             	mov    %rax,(%rdx)
  40286d:	48 8b 45 f8          	mov    -0x8(%rbp),%rax
  402871:	48 8d 90 30 03 00 00 	lea    0x330(%rax),%rdx
  402878:	48 8b 45 f0          	mov    -0x10(%rbp),%rax
  40287c:	48 8b 80 f0 03 00 00 	mov    0x3f0(%rax),%rax
  402883:	48 89 02             	mov    %rax,(%rdx)
  402886:	48 8b 45 f8          	mov    -0x8(%rbp),%rax
  40288a:	48 8d 90 38 03 00 00 	lea    0x338(%rax),%rdx
  402891:	48 8b 45 f0          	mov    -0x10(%rbp),%rax
  402895:	48 8b 80 f8 03 00 00 	mov    0x3f8(%rax),%rax
  40289c:	48 89 02             	mov    %rax,(%rdx)
  40289f:	48 8b 45 f8          	mov    -0x8(%rbp),%rax
  4028a3:	48 8d 90 40 03 00 00 	lea    0x340(%rax),%rdx
  4028aa:	48 8b 45 f0          	mov    -0x10(%rbp),%rax
  4028ae:	48 8b 80 00 03 00 00 	mov    0x300(%rax),%rax
  4028b5:	48 89 02             	mov    %rax,(%rdx)
  4028b8:	48 8b 45 f8          	mov    -0x8(%rbp),%rax
  4028bc:	48 8d 90 48 03 00 00 	lea    0x348(%rax),%rdx
  4028c3:	48 8b 45 f0          	mov    -0x10(%rbp),%rax
  4028c7:	48 8b 80 08 03 00 00 	mov    0x308(%rax),%rax
  4028ce:	48 89 02             	mov    %rax,(%rdx)
  4028d1:	48 8b 45 f8          	mov    -0x8(%rbp),%rax
  4028d5:	48 8d 90 50 03 00 00 	lea    0x350(%rax),%rdx
  4028dc:	48 8b 45 f0          	mov    -0x10(%rbp),%rax
  4028e0:	48 8b 80 10 03 00 00 	mov    0x310(%rax),%rax
  4028e7:	48 89 02             	mov    %rax,(%rdx)
  4028ea:	48 8b 45 f8          	mov    -0x8(%rbp),%rax
  4028ee:	48 8d 90 58 03 00 00 	lea    0x358(%rax),%rdx
  4028f5:	48 8b 45 f0          	mov    -0x10(%rbp),%rax
  4028f9:	48 8b 80 18 03 00 00 	mov    0x318(%rax),%rax
  402900:	48 89 02             	mov    %rax,(%rdx)
  402903:	48 8b 45 f8          	mov    -0x8(%rbp),%rax
  402907:	48 8d 90 60 03 00 00 	lea    0x360(%rax),%rdx
  40290e:	48 8b 45 f0          	mov    -0x10(%rbp),%rax
  402912:	48 8b 80 20 03 00 00 	mov    0x320(%rax),%rax
  402919:	48 89 02             	mov    %rax,(%rdx)
  40291c:	48 8b 45 f8          	mov    -0x8(%rbp),%rax
  402920:	48 8d 90 68 03 00 00 	lea    0x368(%rax),%rdx
  402927:	48 8b 45 f0          	mov    -0x10(%rbp),%rax
  40292b:	48 8b 80 28 03 00 00 	mov    0x328(%rax),%rax
  402932:	48 89 02             	mov    %rax,(%rdx)
  402935:	48 8b 45 f8          	mov    -0x8(%rbp),%rax
  402939:	48 8d 90 70 03 00 00 	lea    0x370(%rax),%rdx
  402940:	48 8b 45 f0          	mov    -0x10(%rbp),%rax
  402944:	48 8b 80 30 03 00 00 	mov    0x330(%rax),%rax
  40294b:	48 89 02             	mov    %rax,(%rdx)
  40294e:	48 8b 45 f8          	mov    -0x8(%rbp),%rax
  402952:	48 8d 90 78 03 00 00 	lea    0x378(%rax),%rdx
  402959:	48 8b 45 f0          	mov    -0x10(%rbp),%rax
  40295d:	48 8b 80 38 03 00 00 	mov    0x338(%rax),%rax
  402964:	48 89 02             	mov    %rax,(%rdx)
  402967:	48 8b 45 f8          	mov    -0x8(%rbp),%rax
  40296b:	48 8d 90 80 03 00 00 	lea    0x380(%rax),%rdx
  402972:	48 8b 45 f0          	mov    -0x10(%rbp),%rax
  402976:	48 8b 80 40 03 00 00 	mov    0x340(%rax),%rax
  40297d:	48 89 02             	mov    %rax,(%rdx)
  402980:	48 8b 45 f8          	mov    -0x8(%rbp),%rax
  402984:	48 8d 90 88 03 00 00 	lea    0x388(%rax),%rdx
  40298b:	48 8b 45 f0          	mov    -0x10(%rbp),%rax
  40298f:	48 8b 80 48 03 00 00 	mov    0x348(%rax),%rax
  402996:	48 89 02             	mov    %rax,(%rdx)
  402999:	48 8b 45 f8          	mov    -0x8(%rbp),%rax
  40299d:	48 8d 90 90 03 00 00 	lea    0x390(%rax),%rdx
  4029a4:	48 8b 45 f0          	mov    -0x10(%rbp),%rax
  4029a8:	48 8b 80 50 03 00 00 	mov    0x350(%rax),%rax
  4029af:	48 89 02             	mov    %rax,(%rdx)
  4029b2:	48 8b 45 f8          	mov    -0x8(%rbp),%rax
  4029b6:	48 8d 90 98 03 00 00 	lea    0x398(%rax),%rdx
  4029bd:	48 8b 45 f0          	mov    -0x10(%rbp),%rax
  4029c1:	48 8b 80 58 03 00 00 	mov    0x358(%rax),%rax
  4029c8:	48 89 02             	mov    %rax,(%rdx)
  4029cb:	48 8b 45 f8          	mov    -0x8(%rbp),%rax
  4029cf:	48 8d 90 a0 03 00 00 	lea    0x3a0(%rax),%rdx
  4029d6:	48 8b 45 f0          	mov    -0x10(%rbp),%rax
  4029da:	48 8b 80 60 03 00 00 	mov    0x360(%rax),%rax
  4029e1:	48 89 02             	mov    %rax,(%rdx)
  4029e4:	48 8b 45 f8          	mov    -0x8(%rbp),%rax
  4029e8:	48 8d 90 a8 03 00 00 	lea    0x3a8(%rax),%rdx
  4029ef:	48 8b 45 f0          	mov    -0x10(%rbp),%rax
  4029f3:	48 8b 80 68 03 00 00 	mov    0x368(%rax),%rax
  4029fa:	48 89 02             	mov    %rax,(%rdx)
  4029fd:	48 8b 45 f8          	mov    -0x8(%rbp),%rax
  402a01:	48 8d 90 b0 03 00 00 	lea    0x3b0(%rax),%rdx
  402a08:	48 8b 45 f0          	mov    -0x10(%rbp),%rax
  402a0c:	48 8b 80 70 03 00 00 	mov    0x370(%rax),%rax
  402a13:	48 89 02             	mov    %rax,(%rdx)
  402a16:	48 8b 45 f8          	mov    -0x8(%rbp),%rax
  402a1a:	48 8d 90 b8 03 00 00 	lea    0x3b8(%rax),%rdx
  402a21:	48 8b 45 f0          	mov    -0x10(%rbp),%rax
  402a25:	48 8b 80 78 03 00 00 	mov    0x378(%rax),%rax
  402a2c:	48 89 02             	mov    %rax,(%rdx)
  402a2f:	48 8b 45 f8          	mov    -0x8(%rbp),%rax
  402a33:	48 8d 90 c0 03 00 00 	lea    0x3c0(%rax),%rdx
  402a3a:	48 8b 45 f0          	mov    -0x10(%rbp),%rax
  402a3e:	48 8b 80 80 03 00 00 	mov    0x380(%rax),%rax
  402a45:	48 89 02             	mov    %rax,(%rdx)
  402a48:	48 8b 45 f8          	mov    -0x8(%rbp),%rax
  402a4c:	48 8d 90 c8 03 00 00 	lea    0x3c8(%rax),%rdx
  402a53:	48 8b 45 f0          	mov    -0x10(%rbp),%rax
  402a57:	48 8b 80 88 03 00 00 	mov    0x388(%rax),%rax
  402a5e:	48 89 02             	mov    %rax,(%rdx)
  402a61:	48 8b 45 f8          	mov    -0x8(%rbp),%rax
  402a65:	48 8d 90 d0 03 00 00 	lea    0x3d0(%rax),%rdx
  402a6c:	48 8b 45 f0          	mov    -0x10(%rbp),%rax
  402a70:	48 8b 80 90 03 00 00 	mov    0x390(%rax),%rax
  402a77:	48 89 02             	mov    %rax,(%rdx)
  402a7a:	48 8b 45 f8          	mov    -0x8(%rbp),%rax
  402a7e:	48 8d 90 d8 03 00 00 	lea    0x3d8(%rax),%rdx
  402a85:	48 8b 45 f0          	mov    -0x10(%rbp),%rax
  402a89:	48 8b 80 98 03 00 00 	mov    0x398(%rax),%rax
  402a90:	48 89 02             	mov    %rax,(%rdx)
  402a93:	48 8b 45 f8          	mov    -0x8(%rbp),%rax
  402a97:	48 8d 90 e0 03 00 00 	lea    0x3e0(%rax),%rdx
  402a9e:	48 8b 45 f0          	mov    -0x10(%rbp),%rax
  402aa2:	48 8b 80 a0 03 00 00 	mov    0x3a0(%rax),%rax
  402aa9:	48 89 02             	mov    %rax,(%rdx)
  402aac:	48 8b 45 f8          	mov    -0x8(%rbp),%rax
  402ab0:	48 8d 90 e8 03 00 00 	lea    0x3e8(%rax),%rdx
  402ab7:	48 8b 45 f0          	mov    -0x10(%rbp),%rax
  402abb:	48 8b 80 a8 03 00 00 	mov    0x3a8(%rax),%rax
  402ac2:	48 89 02             	mov    %rax,(%rdx)
  402ac5:	48 8b 45 f8          	mov    -0x8(%rbp),%rax
  402ac9:	48 8d 90 f0 03 00 00 	lea    0x3f0(%rax),%rdx
  402ad0:	48 8b 45 f0          	mov    -0x10(%rbp),%rax
  402ad4:	48 8b 80 b0 03 00 00 	mov    0x3b0(%rax),%rax
  402adb:	48 89 02             	mov    %rax,(%rdx)
  402ade:	48 8b 45 f8          	mov    -0x8(%rbp),%rax
  402ae2:	48 8d 90 f8 03 00 00 	lea    0x3f8(%rax),%rdx
  402ae9:	48 8b 45 f0          	mov    -0x10(%rbp),%rax
  402aed:	48 8b 80 b8 03 00 00 	mov    0x3b8(%rax),%rax
  402af4:	48 89 02             	mov    %rax,(%rdx)
  402af7:	5d                   	pop    %rbp
  402af8:	c3                   	retq   

0000000000402af9 <bs_shiftrows_rev>:
  402af9:	55                   	push   %rbp
  402afa:	48 89 e5             	mov    %rsp,%rbp
  402afd:	48 89 7d f8          	mov    %rdi,-0x8(%rbp)
  402b01:	48 89 75 f0          	mov    %rsi,-0x10(%rbp)
  402b05:	48 8b 45 f0          	mov    -0x10(%rbp),%rax
  402b09:	48 8b 10             	mov    (%rax),%rdx
  402b0c:	48 8b 45 f8          	mov    -0x8(%rbp),%rax
  402b10:	48 89 10             	mov    %rdx,(%rax)
  402b13:	48 8b 45 f8          	mov    -0x8(%rbp),%rax
  402b17:	48 8d 50 08          	lea    0x8(%rax),%rdx
  402b1b:	48 8b 45 f0          	mov    -0x10(%rbp),%rax
  402b1f:	48 8b 40 08          	mov    0x8(%rax),%rax
  402b23:	48 89 02             	mov    %rax,(%rdx)
  402b26:	48 8b 45 f8          	mov    -0x8(%rbp),%rax
  402b2a:	48 8d 50 10          	lea    0x10(%rax),%rdx
  402b2e:	48 8b 45 f0          	mov    -0x10(%rbp),%rax
  402b32:	48 8b 40 10          	mov    0x10(%rax),%rax
  402b36:	48 89 02             	mov    %rax,(%rdx)
  402b39:	48 8b 45 f8          	mov    -0x8(%rbp),%rax
  402b3d:	48 8d 50 18          	lea    0x18(%rax),%rdx
  402b41:	48 8b 45 f0          	mov    -0x10(%rbp),%rax
  402b45:	48 8b 40 18          	mov    0x18(%rax),%rax
  402b49:	48 89 02             	mov    %rax,(%rdx)
  402b4c:	48 8b 45 f8          	mov    -0x8(%rbp),%rax
  402b50:	48 8d 50 20          	lea    0x20(%rax),%rdx
  402b54:	48 8b 45 f0          	mov    -0x10(%rbp),%rax
  402b58:	48 8b 40 20          	mov    0x20(%rax),%rax
  402b5c:	48 89 02             	mov    %rax,(%rdx)
  402b5f:	48 8b 45 f8          	mov    -0x8(%rbp),%rax
  402b63:	48 8d 50 28          	lea    0x28(%rax),%rdx
  402b67:	48 8b 45 f0          	mov    -0x10(%rbp),%rax
  402b6b:	48 8b 40 28          	mov    0x28(%rax),%rax
  402b6f:	48 89 02             	mov    %rax,(%rdx)
  402b72:	48 8b 45 f8          	mov    -0x8(%rbp),%rax
  402b76:	48 8d 50 30          	lea    0x30(%rax),%rdx
  402b7a:	48 8b 45 f0          	mov    -0x10(%rbp),%rax
  402b7e:	48 8b 40 30          	mov    0x30(%rax),%rax
  402b82:	48 89 02             	mov    %rax,(%rdx)
  402b85:	48 8b 45 f8          	mov    -0x8(%rbp),%rax
  402b89:	48 8d 50 38          	lea    0x38(%rax),%rdx
  402b8d:	48 8b 45 f0          	mov    -0x10(%rbp),%rax
  402b91:	48 8b 40 38          	mov    0x38(%rax),%rax
  402b95:	48 89 02             	mov    %rax,(%rdx)
  402b98:	48 8b 45 f8          	mov    -0x8(%rbp),%rax
  402b9c:	48 8d 50 40          	lea    0x40(%rax),%rdx
  402ba0:	48 8b 45 f0          	mov    -0x10(%rbp),%rax
  402ba4:	48 8b 40 40          	mov    0x40(%rax),%rax
  402ba8:	48 89 02             	mov    %rax,(%rdx)
  402bab:	48 8b 45 f8          	mov    -0x8(%rbp),%rax
  402baf:	48 8d 50 48          	lea    0x48(%rax),%rdx
  402bb3:	48 8b 45 f0          	mov    -0x10(%rbp),%rax
  402bb7:	48 8b 40 48          	mov    0x48(%rax),%rax
  402bbb:	48 89 02             	mov    %rax,(%rdx)
  402bbe:	48 8b 45 f8          	mov    -0x8(%rbp),%rax
  402bc2:	48 8d 50 50          	lea    0x50(%rax),%rdx
  402bc6:	48 8b 45 f0          	mov    -0x10(%rbp),%rax
  402bca:	48 8b 40 50          	mov    0x50(%rax),%rax
  402bce:	48 89 02             	mov    %rax,(%rdx)
  402bd1:	48 8b 45 f8          	mov    -0x8(%rbp),%rax
  402bd5:	48 8d 50 58          	lea    0x58(%rax),%rdx
  402bd9:	48 8b 45 f0          	mov    -0x10(%rbp),%rax
  402bdd:	48 8b 40 58          	mov    0x58(%rax),%rax
  402be1:	48 89 02             	mov    %rax,(%rdx)
  402be4:	48 8b 45 f8          	mov    -0x8(%rbp),%rax
  402be8:	48 8d 50 60          	lea    0x60(%rax),%rdx
  402bec:	48 8b 45 f0          	mov    -0x10(%rbp),%rax
  402bf0:	48 8b 40 60          	mov    0x60(%rax),%rax
  402bf4:	48 89 02             	mov    %rax,(%rdx)
  402bf7:	48 8b 45 f8          	mov    -0x8(%rbp),%rax
  402bfb:	48 8d 50 68          	lea    0x68(%rax),%rdx
  402bff:	48 8b 45 f0          	mov    -0x10(%rbp),%rax
  402c03:	48 8b 40 68          	mov    0x68(%rax),%rax
  402c07:	48 89 02             	mov    %rax,(%rdx)
  402c0a:	48 8b 45 f8          	mov    -0x8(%rbp),%rax
  402c0e:	48 8d 50 70          	lea    0x70(%rax),%rdx
  402c12:	48 8b 45 f0          	mov    -0x10(%rbp),%rax
  402c16:	48 8b 40 70          	mov    0x70(%rax),%rax
  402c1a:	48 89 02             	mov    %rax,(%rdx)
  402c1d:	48 8b 45 f8          	mov    -0x8(%rbp),%rax
  402c21:	48 8d 50 78          	lea    0x78(%rax),%rdx
  402c25:	48 8b 45 f0          	mov    -0x10(%rbp),%rax
  402c29:	48 8b 40 78          	mov    0x78(%rax),%rax
  402c2d:	48 89 02             	mov    %rax,(%rdx)
  402c30:	48 8b 45 f8          	mov    -0x8(%rbp),%rax
  402c34:	48 8d 90 80 00 00 00 	lea    0x80(%rax),%rdx
  402c3b:	48 8b 45 f0          	mov    -0x10(%rbp),%rax
  402c3f:	48 8b 80 80 00 00 00 	mov    0x80(%rax),%rax
  402c46:	48 89 02             	mov    %rax,(%rdx)
  402c49:	48 8b 45 f8          	mov    -0x8(%rbp),%rax
  402c4d:	48 8d 90 88 00 00 00 	lea    0x88(%rax),%rdx
  402c54:	48 8b 45 f0          	mov    -0x10(%rbp),%rax
  402c58:	48 8b 80 88 00 00 00 	mov    0x88(%rax),%rax
  402c5f:	48 89 02             	mov    %rax,(%rdx)
  402c62:	48 8b 45 f8          	mov    -0x8(%rbp),%rax
  402c66:	48 8d 90 90 00 00 00 	lea    0x90(%rax),%rdx
  402c6d:	48 8b 45 f0          	mov    -0x10(%rbp),%rax
  402c71:	48 8b 80 90 00 00 00 	mov    0x90(%rax),%rax
  402c78:	48 89 02             	mov    %rax,(%rdx)
  402c7b:	48 8b 45 f8          	mov    -0x8(%rbp),%rax
  402c7f:	48 8d 90 98 00 00 00 	lea    0x98(%rax),%rdx
  402c86:	48 8b 45 f0          	mov    -0x10(%rbp),%rax
  402c8a:	48 8b 80 98 00 00 00 	mov    0x98(%rax),%rax
  402c91:	48 89 02             	mov    %rax,(%rdx)
  402c94:	48 8b 45 f8          	mov    -0x8(%rbp),%rax
  402c98:	48 8d 90 a0 00 00 00 	lea    0xa0(%rax),%rdx
  402c9f:	48 8b 45 f0          	mov    -0x10(%rbp),%rax
  402ca3:	48 8b 80 a0 00 00 00 	mov    0xa0(%rax),%rax
  402caa:	48 89 02             	mov    %rax,(%rdx)
  402cad:	48 8b 45 f8          	mov    -0x8(%rbp),%rax
  402cb1:	48 8d 90 a8 00 00 00 	lea    0xa8(%rax),%rdx
  402cb8:	48 8b 45 f0          	mov    -0x10(%rbp),%rax
  402cbc:	48 8b 80 a8 00 00 00 	mov    0xa8(%rax),%rax
  402cc3:	48 89 02             	mov    %rax,(%rdx)
  402cc6:	48 8b 45 f8          	mov    -0x8(%rbp),%rax
  402cca:	48 8d 90 b0 00 00 00 	lea    0xb0(%rax),%rdx
  402cd1:	48 8b 45 f0          	mov    -0x10(%rbp),%rax
  402cd5:	48 8b 80 b0 00 00 00 	mov    0xb0(%rax),%rax
  402cdc:	48 89 02             	mov    %rax,(%rdx)
  402cdf:	48 8b 45 f8          	mov    -0x8(%rbp),%rax
  402ce3:	48 8d 90 b8 00 00 00 	lea    0xb8(%rax),%rdx
  402cea:	48 8b 45 f0          	mov    -0x10(%rbp),%rax
  402cee:	48 8b 80 b8 00 00 00 	mov    0xb8(%rax),%rax
  402cf5:	48 89 02             	mov    %rax,(%rdx)
  402cf8:	48 8b 45 f8          	mov    -0x8(%rbp),%rax
  402cfc:	48 8d 90 c0 00 00 00 	lea    0xc0(%rax),%rdx
  402d03:	48 8b 45 f0          	mov    -0x10(%rbp),%rax
  402d07:	48 8b 80 c0 00 00 00 	mov    0xc0(%rax),%rax
  402d0e:	48 89 02             	mov    %rax,(%rdx)
  402d11:	48 8b 45 f8          	mov    -0x8(%rbp),%rax
  402d15:	48 8d 90 c8 00 00 00 	lea    0xc8(%rax),%rdx
  402d1c:	48 8b 45 f0          	mov    -0x10(%rbp),%rax
  402d20:	48 8b 80 c8 00 00 00 	mov    0xc8(%rax),%rax
  402d27:	48 89 02             	mov    %rax,(%rdx)
  402d2a:	48 8b 45 f8          	mov    -0x8(%rbp),%rax
  402d2e:	48 8d 90 d0 00 00 00 	lea    0xd0(%rax),%rdx
  402d35:	48 8b 45 f0          	mov    -0x10(%rbp),%rax
  402d39:	48 8b 80 d0 00 00 00 	mov    0xd0(%rax),%rax
  402d40:	48 89 02             	mov    %rax,(%rdx)
  402d43:	48 8b 45 f8          	mov    -0x8(%rbp),%rax
  402d47:	48 8d 90 d8 00 00 00 	lea    0xd8(%rax),%rdx
  402d4e:	48 8b 45 f0          	mov    -0x10(%rbp),%rax
  402d52:	48 8b 80 d8 00 00 00 	mov    0xd8(%rax),%rax
  402d59:	48 89 02             	mov    %rax,(%rdx)
  402d5c:	48 8b 45 f8          	mov    -0x8(%rbp),%rax
  402d60:	48 8d 90 e0 00 00 00 	lea    0xe0(%rax),%rdx
  402d67:	48 8b 45 f0          	mov    -0x10(%rbp),%rax
  402d6b:	48 8b 80 e0 00 00 00 	mov    0xe0(%rax),%rax
  402d72:	48 89 02             	mov    %rax,(%rdx)
  402d75:	48 8b 45 f8          	mov    -0x8(%rbp),%rax
  402d79:	48 8d 90 e8 00 00 00 	lea    0xe8(%rax),%rdx
  402d80:	48 8b 45 f0          	mov    -0x10(%rbp),%rax
  402d84:	48 8b 80 e8 00 00 00 	mov    0xe8(%rax),%rax
  402d8b:	48 89 02             	mov    %rax,(%rdx)
  402d8e:	48 8b 45 f8          	mov    -0x8(%rbp),%rax
  402d92:	48 8d 90 f0 00 00 00 	lea    0xf0(%rax),%rdx
  402d99:	48 8b 45 f0          	mov    -0x10(%rbp),%rax
  402d9d:	48 8b 80 f0 00 00 00 	mov    0xf0(%rax),%rax
  402da4:	48 89 02             	mov    %rax,(%rdx)
  402da7:	48 8b 45 f8          	mov    -0x8(%rbp),%rax
  402dab:	48 8d 90 f8 00 00 00 	lea    0xf8(%rax),%rdx
  402db2:	48 8b 45 f0          	mov    -0x10(%rbp),%rax
  402db6:	48 8b 80 f8 00 00 00 	mov    0xf8(%rax),%rax
  402dbd:	48 89 02             	mov    %rax,(%rdx)
  402dc0:	48 8b 45 f8          	mov    -0x8(%rbp),%rax
  402dc4:	48 8d 90 40 01 00 00 	lea    0x140(%rax),%rdx
  402dcb:	48 8b 45 f0          	mov    -0x10(%rbp),%rax
  402dcf:	48 8b 80 00 01 00 00 	mov    0x100(%rax),%rax
  402dd6:	48 89 02             	mov    %rax,(%rdx)
  402dd9:	48 8b 45 f8          	mov    -0x8(%rbp),%rax
  402ddd:	48 8d 90 48 01 00 00 	lea    0x148(%rax),%rdx
  402de4:	48 8b 45 f0          	mov    -0x10(%rbp),%rax
  402de8:	48 8b 80 08 01 00 00 	mov    0x108(%rax),%rax
  402def:	48 89 02             	mov    %rax,(%rdx)
  402df2:	48 8b 45 f8          	mov    -0x8(%rbp),%rax
  402df6:	48 8d 90 50 01 00 00 	lea    0x150(%rax),%rdx
  402dfd:	48 8b 45 f0          	mov    -0x10(%rbp),%rax
  402e01:	48 8b 80 10 01 00 00 	mov    0x110(%rax),%rax
  402e08:	48 89 02             	mov    %rax,(%rdx)
  402e0b:	48 8b 45 f8          	mov    -0x8(%rbp),%rax
  402e0f:	48 8d 90 58 01 00 00 	lea    0x158(%rax),%rdx
  402e16:	48 8b 45 f0          	mov    -0x10(%rbp),%rax
  402e1a:	48 8b 80 18 01 00 00 	mov    0x118(%rax),%rax
  402e21:	48 89 02             	mov    %rax,(%rdx)
  402e24:	48 8b 45 f8          	mov    -0x8(%rbp),%rax
  402e28:	48 8d 90 60 01 00 00 	lea    0x160(%rax),%rdx
  402e2f:	48 8b 45 f0          	mov    -0x10(%rbp),%rax
  402e33:	48 8b 80 20 01 00 00 	mov    0x120(%rax),%rax
  402e3a:	48 89 02             	mov    %rax,(%rdx)
  402e3d:	48 8b 45 f8          	mov    -0x8(%rbp),%rax
  402e41:	48 8d 90 68 01 00 00 	lea    0x168(%rax),%rdx
  402e48:	48 8b 45 f0          	mov    -0x10(%rbp),%rax
  402e4c:	48 8b 80 28 01 00 00 	mov    0x128(%rax),%rax
  402e53:	48 89 02             	mov    %rax,(%rdx)
  402e56:	48 8b 45 f8          	mov    -0x8(%rbp),%rax
  402e5a:	48 8d 90 70 01 00 00 	lea    0x170(%rax),%rdx
  402e61:	48 8b 45 f0          	mov    -0x10(%rbp),%rax
  402e65:	48 8b 80 30 01 00 00 	mov    0x130(%rax),%rax
  402e6c:	48 89 02             	mov    %rax,(%rdx)
  402e6f:	48 8b 45 f8          	mov    -0x8(%rbp),%rax
  402e73:	48 8d 90 78 01 00 00 	lea    0x178(%rax),%rdx
  402e7a:	48 8b 45 f0          	mov    -0x10(%rbp),%rax
  402e7e:	48 8b 80 38 01 00 00 	mov    0x138(%rax),%rax
  402e85:	48 89 02             	mov    %rax,(%rdx)
  402e88:	48 8b 45 f8          	mov    -0x8(%rbp),%rax
  402e8c:	48 8d 90 80 01 00 00 	lea    0x180(%rax),%rdx
  402e93:	48 8b 45 f0          	mov    -0x10(%rbp),%rax
  402e97:	48 8b 80 40 01 00 00 	mov    0x140(%rax),%rax
  402e9e:	48 89 02             	mov    %rax,(%rdx)
  402ea1:	48 8b 45 f8          	mov    -0x8(%rbp),%rax
  402ea5:	48 8d 90 88 01 00 00 	lea    0x188(%rax),%rdx
  402eac:	48 8b 45 f0          	mov    -0x10(%rbp),%rax
  402eb0:	48 8b 80 48 01 00 00 	mov    0x148(%rax),%rax
  402eb7:	48 89 02             	mov    %rax,(%rdx)
  402eba:	48 8b 45 f8          	mov    -0x8(%rbp),%rax
  402ebe:	48 8d 90 90 01 00 00 	lea    0x190(%rax),%rdx
  402ec5:	48 8b 45 f0          	mov    -0x10(%rbp),%rax
  402ec9:	48 8b 80 50 01 00 00 	mov    0x150(%rax),%rax
  402ed0:	48 89 02             	mov    %rax,(%rdx)
  402ed3:	48 8b 45 f8          	mov    -0x8(%rbp),%rax
  402ed7:	48 8d 90 98 01 00 00 	lea    0x198(%rax),%rdx
  402ede:	48 8b 45 f0          	mov    -0x10(%rbp),%rax
  402ee2:	48 8b 80 58 01 00 00 	mov    0x158(%rax),%rax
  402ee9:	48 89 02             	mov    %rax,(%rdx)
  402eec:	48 8b 45 f8          	mov    -0x8(%rbp),%rax
  402ef0:	48 8d 90 a0 01 00 00 	lea    0x1a0(%rax),%rdx
  402ef7:	48 8b 45 f0          	mov    -0x10(%rbp),%rax
  402efb:	48 8b 80 60 01 00 00 	mov    0x160(%rax),%rax
  402f02:	48 89 02             	mov    %rax,(%rdx)
  402f05:	48 8b 45 f8          	mov    -0x8(%rbp),%rax
  402f09:	48 8d 90 a8 01 00 00 	lea    0x1a8(%rax),%rdx
  402f10:	48 8b 45 f0          	mov    -0x10(%rbp),%rax
  402f14:	48 8b 80 68 01 00 00 	mov    0x168(%rax),%rax
  402f1b:	48 89 02             	mov    %rax,(%rdx)
  402f1e:	48 8b 45 f8          	mov    -0x8(%rbp),%rax
  402f22:	48 8d 90 b0 01 00 00 	lea    0x1b0(%rax),%rdx
  402f29:	48 8b 45 f0          	mov    -0x10(%rbp),%rax
  402f2d:	48 8b 80 70 01 00 00 	mov    0x170(%rax),%rax
  402f34:	48 89 02             	mov    %rax,(%rdx)
  402f37:	48 8b 45 f8          	mov    -0x8(%rbp),%rax
  402f3b:	48 8d 90 b8 01 00 00 	lea    0x1b8(%rax),%rdx
  402f42:	48 8b 45 f0          	mov    -0x10(%rbp),%rax
  402f46:	48 8b 80 78 01 00 00 	mov    0x178(%rax),%rax
  402f4d:	48 89 02             	mov    %rax,(%rdx)
  402f50:	48 8b 45 f8          	mov    -0x8(%rbp),%rax
  402f54:	48 8d 90 c0 01 00 00 	lea    0x1c0(%rax),%rdx
  402f5b:	48 8b 45 f0          	mov    -0x10(%rbp),%rax
  402f5f:	48 8b 80 80 01 00 00 	mov    0x180(%rax),%rax
  402f66:	48 89 02             	mov    %rax,(%rdx)
  402f69:	48 8b 45 f8          	mov    -0x8(%rbp),%rax
  402f6d:	48 8d 90 c8 01 00 00 	lea    0x1c8(%rax),%rdx
  402f74:	48 8b 45 f0          	mov    -0x10(%rbp),%rax
  402f78:	48 8b 80 88 01 00 00 	mov    0x188(%rax),%rax
  402f7f:	48 89 02             	mov    %rax,(%rdx)
  402f82:	48 8b 45 f8          	mov    -0x8(%rbp),%rax
  402f86:	48 8d 90 d0 01 00 00 	lea    0x1d0(%rax),%rdx
  402f8d:	48 8b 45 f0          	mov    -0x10(%rbp),%rax
  402f91:	48 8b 80 90 01 00 00 	mov    0x190(%rax),%rax
  402f98:	48 89 02             	mov    %rax,(%rdx)
  402f9b:	48 8b 45 f8          	mov    -0x8(%rbp),%rax
  402f9f:	48 8d 90 d8 01 00 00 	lea    0x1d8(%rax),%rdx
  402fa6:	48 8b 45 f0          	mov    -0x10(%rbp),%rax
  402faa:	48 8b 80 98 01 00 00 	mov    0x198(%rax),%rax
  402fb1:	48 89 02             	mov    %rax,(%rdx)
  402fb4:	48 8b 45 f8          	mov    -0x8(%rbp),%rax
  402fb8:	48 8d 90 e0 01 00 00 	lea    0x1e0(%rax),%rdx
  402fbf:	48 8b 45 f0          	mov    -0x10(%rbp),%rax
  402fc3:	48 8b 80 a0 01 00 00 	mov    0x1a0(%rax),%rax
  402fca:	48 89 02             	mov    %rax,(%rdx)
  402fcd:	48 8b 45 f8          	mov    -0x8(%rbp),%rax
  402fd1:	48 8d 90 e8 01 00 00 	lea    0x1e8(%rax),%rdx
  402fd8:	48 8b 45 f0          	mov    -0x10(%rbp),%rax
  402fdc:	48 8b 80 a8 01 00 00 	mov    0x1a8(%rax),%rax
  402fe3:	48 89 02             	mov    %rax,(%rdx)
  402fe6:	48 8b 45 f8          	mov    -0x8(%rbp),%rax
  402fea:	48 8d 90 f0 01 00 00 	lea    0x1f0(%rax),%rdx
  402ff1:	48 8b 45 f0          	mov    -0x10(%rbp),%rax
  402ff5:	48 8b 80 b0 01 00 00 	mov    0x1b0(%rax),%rax
  402ffc:	48 89 02             	mov    %rax,(%rdx)
  402fff:	48 8b 45 f8          	mov    -0x8(%rbp),%rax
  403003:	48 8d 90 f8 01 00 00 	lea    0x1f8(%rax),%rdx
  40300a:	48 8b 45 f0          	mov    -0x10(%rbp),%rax
  40300e:	48 8b 80 b8 01 00 00 	mov    0x1b8(%rax),%rax
  403015:	48 89 02             	mov    %rax,(%rdx)
  403018:	48 8b 45 f8          	mov    -0x8(%rbp),%rax
  40301c:	48 8d 90 00 01 00 00 	lea    0x100(%rax),%rdx
  403023:	48 8b 45 f0          	mov    -0x10(%rbp),%rax
  403027:	48 8b 80 c0 01 00 00 	mov    0x1c0(%rax),%rax
  40302e:	48 89 02             	mov    %rax,(%rdx)
  403031:	48 8b 45 f8          	mov    -0x8(%rbp),%rax
  403035:	48 8d 90 08 01 00 00 	lea    0x108(%rax),%rdx
  40303c:	48 8b 45 f0          	mov    -0x10(%rbp),%rax
  403040:	48 8b 80 c8 01 00 00 	mov    0x1c8(%rax),%rax
  403047:	48 89 02             	mov    %rax,(%rdx)
  40304a:	48 8b 45 f8          	mov    -0x8(%rbp),%rax
  40304e:	48 8d 90 10 01 00 00 	lea    0x110(%rax),%rdx
  403055:	48 8b 45 f0          	mov    -0x10(%rbp),%rax
  403059:	48 8b 80 d0 01 00 00 	mov    0x1d0(%rax),%rax
  403060:	48 89 02             	mov    %rax,(%rdx)
  403063:	48 8b 45 f8          	mov    -0x8(%rbp),%rax
  403067:	48 8d 90 18 01 00 00 	lea    0x118(%rax),%rdx
  40306e:	48 8b 45 f0          	mov    -0x10(%rbp),%rax
  403072:	48 8b 80 d8 01 00 00 	mov    0x1d8(%rax),%rax
  403079:	48 89 02             	mov    %rax,(%rdx)
  40307c:	48 8b 45 f8          	mov    -0x8(%rbp),%rax
  403080:	48 8d 90 20 01 00 00 	lea    0x120(%rax),%rdx
  403087:	48 8b 45 f0          	mov    -0x10(%rbp),%rax
  40308b:	48 8b 80 e0 01 00 00 	mov    0x1e0(%rax),%rax
  403092:	48 89 02             	mov    %rax,(%rdx)
  403095:	48 8b 45 f8          	mov    -0x8(%rbp),%rax
  403099:	48 8d 90 28 01 00 00 	lea    0x128(%rax),%rdx
  4030a0:	48 8b 45 f0          	mov    -0x10(%rbp),%rax
  4030a4:	48 8b 80 e8 01 00 00 	mov    0x1e8(%rax),%rax
  4030ab:	48 89 02             	mov    %rax,(%rdx)
  4030ae:	48 8b 45 f8          	mov    -0x8(%rbp),%rax
  4030b2:	48 8d 90 30 01 00 00 	lea    0x130(%rax),%rdx
  4030b9:	48 8b 45 f0          	mov    -0x10(%rbp),%rax
  4030bd:	48 8b 80 f0 01 00 00 	mov    0x1f0(%rax),%rax
  4030c4:	48 89 02             	mov    %rax,(%rdx)
  4030c7:	48 8b 45 f8          	mov    -0x8(%rbp),%rax
  4030cb:	48 8d 90 38 01 00 00 	lea    0x138(%rax),%rdx
  4030d2:	48 8b 45 f0          	mov    -0x10(%rbp),%rax
  4030d6:	48 8b 80 f8 01 00 00 	mov    0x1f8(%rax),%rax
  4030dd:	48 89 02             	mov    %rax,(%rdx)
  4030e0:	48 8b 45 f8          	mov    -0x8(%rbp),%rax
  4030e4:	48 8d 90 80 02 00 00 	lea    0x280(%rax),%rdx
  4030eb:	48 8b 45 f0          	mov    -0x10(%rbp),%rax
  4030ef:	48 8b 80 00 02 00 00 	mov    0x200(%rax),%rax
  4030f6:	48 89 02             	mov    %rax,(%rdx)
  4030f9:	48 8b 45 f8          	mov    -0x8(%rbp),%rax
  4030fd:	48 8d 90 88 02 00 00 	lea    0x288(%rax),%rdx
  403104:	48 8b 45 f0          	mov    -0x10(%rbp),%rax
  403108:	48 8b 80 08 02 00 00 	mov    0x208(%rax),%rax
  40310f:	48 89 02             	mov    %rax,(%rdx)
  403112:	48 8b 45 f8          	mov    -0x8(%rbp),%rax
  403116:	48 8d 90 90 02 00 00 	lea    0x290(%rax),%rdx
  40311d:	48 8b 45 f0          	mov    -0x10(%rbp),%rax
  403121:	48 8b 80 10 02 00 00 	mov    0x210(%rax),%rax
  403128:	48 89 02             	mov    %rax,(%rdx)
  40312b:	48 8b 45 f8          	mov    -0x8(%rbp),%rax
  40312f:	48 8d 90 98 02 00 00 	lea    0x298(%rax),%rdx
  403136:	48 8b 45 f0          	mov    -0x10(%rbp),%rax
  40313a:	48 8b 80 18 02 00 00 	mov    0x218(%rax),%rax
  403141:	48 89 02             	mov    %rax,(%rdx)
  403144:	48 8b 45 f8          	mov    -0x8(%rbp),%rax
  403148:	48 8d 90 a0 02 00 00 	lea    0x2a0(%rax),%rdx
  40314f:	48 8b 45 f0          	mov    -0x10(%rbp),%rax
  403153:	48 8b 80 20 02 00 00 	mov    0x220(%rax),%rax
  40315a:	48 89 02             	mov    %rax,(%rdx)
  40315d:	48 8b 45 f8          	mov    -0x8(%rbp),%rax
  403161:	48 8d 90 a8 02 00 00 	lea    0x2a8(%rax),%rdx
  403168:	48 8b 45 f0          	mov    -0x10(%rbp),%rax
  40316c:	48 8b 80 28 02 00 00 	mov    0x228(%rax),%rax
  403173:	48 89 02             	mov    %rax,(%rdx)
  403176:	48 8b 45 f8          	mov    -0x8(%rbp),%rax
  40317a:	48 8d 90 b0 02 00 00 	lea    0x2b0(%rax),%rdx
  403181:	48 8b 45 f0          	mov    -0x10(%rbp),%rax
  403185:	48 8b 80 30 02 00 00 	mov    0x230(%rax),%rax
  40318c:	48 89 02             	mov    %rax,(%rdx)
  40318f:	48 8b 45 f8          	mov    -0x8(%rbp),%rax
  403193:	48 8d 90 b8 02 00 00 	lea    0x2b8(%rax),%rdx
  40319a:	48 8b 45 f0          	mov    -0x10(%rbp),%rax
  40319e:	48 8b 80 38 02 00 00 	mov    0x238(%rax),%rax
  4031a5:	48 89 02             	mov    %rax,(%rdx)
  4031a8:	48 8b 45 f8          	mov    -0x8(%rbp),%rax
  4031ac:	48 8d 90 c0 02 00 00 	lea    0x2c0(%rax),%rdx
  4031b3:	48 8b 45 f0          	mov    -0x10(%rbp),%rax
  4031b7:	48 8b 80 40 02 00 00 	mov    0x240(%rax),%rax
  4031be:	48 89 02             	mov    %rax,(%rdx)
  4031c1:	48 8b 45 f8          	mov    -0x8(%rbp),%rax
  4031c5:	48 8d 90 c8 02 00 00 	lea    0x2c8(%rax),%rdx
  4031cc:	48 8b 45 f0          	mov    -0x10(%rbp),%rax
  4031d0:	48 8b 80 48 02 00 00 	mov    0x248(%rax),%rax
  4031d7:	48 89 02             	mov    %rax,(%rdx)
  4031da:	48 8b 45 f8          	mov    -0x8(%rbp),%rax
  4031de:	48 8d 90 d0 02 00 00 	lea    0x2d0(%rax),%rdx
  4031e5:	48 8b 45 f0          	mov    -0x10(%rbp),%rax
  4031e9:	48 8b 80 50 02 00 00 	mov    0x250(%rax),%rax
  4031f0:	48 89 02             	mov    %rax,(%rdx)
  4031f3:	48 8b 45 f8          	mov    -0x8(%rbp),%rax
  4031f7:	48 8d 90 d8 02 00 00 	lea    0x2d8(%rax),%rdx
  4031fe:	48 8b 45 f0          	mov    -0x10(%rbp),%rax
  403202:	48 8b 80 58 02 00 00 	mov    0x258(%rax),%rax
  403209:	48 89 02             	mov    %rax,(%rdx)
  40320c:	48 8b 45 f8          	mov    -0x8(%rbp),%rax
  403210:	48 8d 90 e0 02 00 00 	lea    0x2e0(%rax),%rdx
  403217:	48 8b 45 f0          	mov    -0x10(%rbp),%rax
  40321b:	48 8b 80 60 02 00 00 	mov    0x260(%rax),%rax
  403222:	48 89 02             	mov    %rax,(%rdx)
  403225:	48 8b 45 f8          	mov    -0x8(%rbp),%rax
  403229:	48 8d 90 e8 02 00 00 	lea    0x2e8(%rax),%rdx
  403230:	48 8b 45 f0          	mov    -0x10(%rbp),%rax
  403234:	48 8b 80 68 02 00 00 	mov    0x268(%rax),%rax
  40323b:	48 89 02             	mov    %rax,(%rdx)
  40323e:	48 8b 45 f8          	mov    -0x8(%rbp),%rax
  403242:	48 8d 90 f0 02 00 00 	lea    0x2f0(%rax),%rdx
  403249:	48 8b 45 f0          	mov    -0x10(%rbp),%rax
  40324d:	48 8b 80 70 02 00 00 	mov    0x270(%rax),%rax
  403254:	48 89 02             	mov    %rax,(%rdx)
  403257:	48 8b 45 f8          	mov    -0x8(%rbp),%rax
  40325b:	48 8d 90 f8 02 00 00 	lea    0x2f8(%rax),%rdx
  403262:	48 8b 45 f0          	mov    -0x10(%rbp),%rax
  403266:	48 8b 80 78 02 00 00 	mov    0x278(%rax),%rax
  40326d:	48 89 02             	mov    %rax,(%rdx)
  403270:	48 8b 45 f8          	mov    -0x8(%rbp),%rax
  403274:	48 8d 90 00 02 00 00 	lea    0x200(%rax),%rdx
  40327b:	48 8b 45 f0          	mov    -0x10(%rbp),%rax
  40327f:	48 8b 80 80 02 00 00 	mov    0x280(%rax),%rax
  403286:	48 89 02             	mov    %rax,(%rdx)
  403289:	48 8b 45 f8          	mov    -0x8(%rbp),%rax
  40328d:	48 8d 90 08 02 00 00 	lea    0x208(%rax),%rdx
  403294:	48 8b 45 f0          	mov    -0x10(%rbp),%rax
  403298:	48 8b 80 88 02 00 00 	mov    0x288(%rax),%rax
  40329f:	48 89 02             	mov    %rax,(%rdx)
  4032a2:	48 8b 45 f8          	mov    -0x8(%rbp),%rax
  4032a6:	48 8d 90 10 02 00 00 	lea    0x210(%rax),%rdx
  4032ad:	48 8b 45 f0          	mov    -0x10(%rbp),%rax
  4032b1:	48 8b 80 90 02 00 00 	mov    0x290(%rax),%rax
  4032b8:	48 89 02             	mov    %rax,(%rdx)
  4032bb:	48 8b 45 f8          	mov    -0x8(%rbp),%rax
  4032bf:	48 8d 90 18 02 00 00 	lea    0x218(%rax),%rdx
  4032c6:	48 8b 45 f0          	mov    -0x10(%rbp),%rax
  4032ca:	48 8b 80 98 02 00 00 	mov    0x298(%rax),%rax
  4032d1:	48 89 02             	mov    %rax,(%rdx)
  4032d4:	48 8b 45 f8          	mov    -0x8(%rbp),%rax
  4032d8:	48 8d 90 20 02 00 00 	lea    0x220(%rax),%rdx
  4032df:	48 8b 45 f0          	mov    -0x10(%rbp),%rax
  4032e3:	48 8b 80 a0 02 00 00 	mov    0x2a0(%rax),%rax
  4032ea:	48 89 02             	mov    %rax,(%rdx)
  4032ed:	48 8b 45 f8          	mov    -0x8(%rbp),%rax
  4032f1:	48 8d 90 28 02 00 00 	lea    0x228(%rax),%rdx
  4032f8:	48 8b 45 f0          	mov    -0x10(%rbp),%rax
  4032fc:	48 8b 80 a8 02 00 00 	mov    0x2a8(%rax),%rax
  403303:	48 89 02             	mov    %rax,(%rdx)
  403306:	48 8b 45 f8          	mov    -0x8(%rbp),%rax
  40330a:	48 8d 90 30 02 00 00 	lea    0x230(%rax),%rdx
  403311:	48 8b 45 f0          	mov    -0x10(%rbp),%rax
  403315:	48 8b 80 b0 02 00 00 	mov    0x2b0(%rax),%rax
  40331c:	48 89 02             	mov    %rax,(%rdx)
  40331f:	48 8b 45 f8          	mov    -0x8(%rbp),%rax
  403323:	48 8d 90 38 02 00 00 	lea    0x238(%rax),%rdx
  40332a:	48 8b 45 f0          	mov    -0x10(%rbp),%rax
  40332e:	48 8b 80 b8 02 00 00 	mov    0x2b8(%rax),%rax
  403335:	48 89 02             	mov    %rax,(%rdx)
  403338:	48 8b 45 f8          	mov    -0x8(%rbp),%rax
  40333c:	48 8d 90 40 02 00 00 	lea    0x240(%rax),%rdx
  403343:	48 8b 45 f0          	mov    -0x10(%rbp),%rax
  403347:	48 8b 80 c0 02 00 00 	mov    0x2c0(%rax),%rax
  40334e:	48 89 02             	mov    %rax,(%rdx)
  403351:	48 8b 45 f8          	mov    -0x8(%rbp),%rax
  403355:	48 8d 90 48 02 00 00 	lea    0x248(%rax),%rdx
  40335c:	48 8b 45 f0          	mov    -0x10(%rbp),%rax
  403360:	48 8b 80 c8 02 00 00 	mov    0x2c8(%rax),%rax
  403367:	48 89 02             	mov    %rax,(%rdx)
  40336a:	48 8b 45 f8          	mov    -0x8(%rbp),%rax
  40336e:	48 8d 90 50 02 00 00 	lea    0x250(%rax),%rdx
  403375:	48 8b 45 f0          	mov    -0x10(%rbp),%rax
  403379:	48 8b 80 d0 02 00 00 	mov    0x2d0(%rax),%rax
  403380:	48 89 02             	mov    %rax,(%rdx)
  403383:	48 8b 45 f8          	mov    -0x8(%rbp),%rax
  403387:	48 8d 90 58 02 00 00 	lea    0x258(%rax),%rdx
  40338e:	48 8b 45 f0          	mov    -0x10(%rbp),%rax
  403392:	48 8b 80 d8 02 00 00 	mov    0x2d8(%rax),%rax
  403399:	48 89 02             	mov    %rax,(%rdx)
  40339c:	48 8b 45 f8          	mov    -0x8(%rbp),%rax
  4033a0:	48 8d 90 60 02 00 00 	lea    0x260(%rax),%rdx
  4033a7:	48 8b 45 f0          	mov    -0x10(%rbp),%rax
  4033ab:	48 8b 80 e0 02 00 00 	mov    0x2e0(%rax),%rax
  4033b2:	48 89 02             	mov    %rax,(%rdx)
  4033b5:	48 8b 45 f8          	mov    -0x8(%rbp),%rax
  4033b9:	48 8d 90 68 02 00 00 	lea    0x268(%rax),%rdx
  4033c0:	48 8b 45 f0          	mov    -0x10(%rbp),%rax
  4033c4:	48 8b 80 e8 02 00 00 	mov    0x2e8(%rax),%rax
  4033cb:	48 89 02             	mov    %rax,(%rdx)
  4033ce:	48 8b 45 f8          	mov    -0x8(%rbp),%rax
  4033d2:	48 8d 90 70 02 00 00 	lea    0x270(%rax),%rdx
  4033d9:	48 8b 45 f0          	mov    -0x10(%rbp),%rax
  4033dd:	48 8b 80 f0 02 00 00 	mov    0x2f0(%rax),%rax
  4033e4:	48 89 02             	mov    %rax,(%rdx)
  4033e7:	48 8b 45 f8          	mov    -0x8(%rbp),%rax
  4033eb:	48 8d 90 78 02 00 00 	lea    0x278(%rax),%rdx
  4033f2:	48 8b 45 f0          	mov    -0x10(%rbp),%rax
  4033f6:	48 8b 80 f8 02 00 00 	mov    0x2f8(%rax),%rax
  4033fd:	48 89 02             	mov    %rax,(%rdx)
  403400:	48 8b 45 f8          	mov    -0x8(%rbp),%rax
  403404:	48 8d 90 c0 03 00 00 	lea    0x3c0(%rax),%rdx
  40340b:	48 8b 45 f0          	mov    -0x10(%rbp),%rax
  40340f:	48 8b 80 00 03 00 00 	mov    0x300(%rax),%rax
  403416:	48 89 02             	mov    %rax,(%rdx)
  403419:	48 8b 45 f8          	mov    -0x8(%rbp),%rax
  40341d:	48 8d 90 c8 03 00 00 	lea    0x3c8(%rax),%rdx
  403424:	48 8b 45 f0          	mov    -0x10(%rbp),%rax
  403428:	48 8b 80 08 03 00 00 	mov    0x308(%rax),%rax
  40342f:	48 89 02             	mov    %rax,(%rdx)
  403432:	48 8b 45 f8          	mov    -0x8(%rbp),%rax
  403436:	48 8d 90 d0 03 00 00 	lea    0x3d0(%rax),%rdx
  40343d:	48 8b 45 f0          	mov    -0x10(%rbp),%rax
  403441:	48 8b 80 10 03 00 00 	mov    0x310(%rax),%rax
  403448:	48 89 02             	mov    %rax,(%rdx)
  40344b:	48 8b 45 f8          	mov    -0x8(%rbp),%rax
  40344f:	48 8d 90 d8 03 00 00 	lea    0x3d8(%rax),%rdx
  403456:	48 8b 45 f0          	mov    -0x10(%rbp),%rax
  40345a:	48 8b 80 18 03 00 00 	mov    0x318(%rax),%rax
  403461:	48 89 02             	mov    %rax,(%rdx)
  403464:	48 8b 45 f8          	mov    -0x8(%rbp),%rax
  403468:	48 8d 90 e0 03 00 00 	lea    0x3e0(%rax),%rdx
  40346f:	48 8b 45 f0          	mov    -0x10(%rbp),%rax
  403473:	48 8b 80 20 03 00 00 	mov    0x320(%rax),%rax
  40347a:	48 89 02             	mov    %rax,(%rdx)
  40347d:	48 8b 45 f8          	mov    -0x8(%rbp),%rax
  403481:	48 8d 90 e8 03 00 00 	lea    0x3e8(%rax),%rdx
  403488:	48 8b 45 f0          	mov    -0x10(%rbp),%rax
  40348c:	48 8b 80 28 03 00 00 	mov    0x328(%rax),%rax
  403493:	48 89 02             	mov    %rax,(%rdx)
  403496:	48 8b 45 f8          	mov    -0x8(%rbp),%rax
  40349a:	48 8d 90 f0 03 00 00 	lea    0x3f0(%rax),%rdx
  4034a1:	48 8b 45 f0          	mov    -0x10(%rbp),%rax
  4034a5:	48 8b 80 30 03 00 00 	mov    0x330(%rax),%rax
  4034ac:	48 89 02             	mov    %rax,(%rdx)
  4034af:	48 8b 45 f8          	mov    -0x8(%rbp),%rax
  4034b3:	48 8d 90 f8 03 00 00 	lea    0x3f8(%rax),%rdx
  4034ba:	48 8b 45 f0          	mov    -0x10(%rbp),%rax
  4034be:	48 8b 80 38 03 00 00 	mov    0x338(%rax),%rax
  4034c5:	48 89 02             	mov    %rax,(%rdx)
  4034c8:	48 8b 45 f8          	mov    -0x8(%rbp),%rax
  4034cc:	48 8d 90 00 03 00 00 	lea    0x300(%rax),%rdx
  4034d3:	48 8b 45 f0          	mov    -0x10(%rbp),%rax
  4034d7:	48 8b 80 40 03 00 00 	mov    0x340(%rax),%rax
  4034de:	48 89 02             	mov    %rax,(%rdx)
  4034e1:	48 8b 45 f8          	mov    -0x8(%rbp),%rax
  4034e5:	48 8d 90 08 03 00 00 	lea    0x308(%rax),%rdx
  4034ec:	48 8b 45 f0          	mov    -0x10(%rbp),%rax
  4034f0:	48 8b 80 48 03 00 00 	mov    0x348(%rax),%rax
  4034f7:	48 89 02             	mov    %rax,(%rdx)
  4034fa:	48 8b 45 f8          	mov    -0x8(%rbp),%rax
  4034fe:	48 8d 90 10 03 00 00 	lea    0x310(%rax),%rdx
  403505:	48 8b 45 f0          	mov    -0x10(%rbp),%rax
  403509:	48 8b 80 50 03 00 00 	mov    0x350(%rax),%rax
  403510:	48 89 02             	mov    %rax,(%rdx)
  403513:	48 8b 45 f8          	mov    -0x8(%rbp),%rax
  403517:	48 8d 90 18 03 00 00 	lea    0x318(%rax),%rdx
  40351e:	48 8b 45 f0          	mov    -0x10(%rbp),%rax
  403522:	48 8b 80 58 03 00 00 	mov    0x358(%rax),%rax
  403529:	48 89 02             	mov    %rax,(%rdx)
  40352c:	48 8b 45 f8          	mov    -0x8(%rbp),%rax
  403530:	48 8d 90 20 03 00 00 	lea    0x320(%rax),%rdx
  403537:	48 8b 45 f0          	mov    -0x10(%rbp),%rax
  40353b:	48 8b 80 60 03 00 00 	mov    0x360(%rax),%rax
  403542:	48 89 02             	mov    %rax,(%rdx)
  403545:	48 8b 45 f8          	mov    -0x8(%rbp),%rax
  403549:	48 8d 90 28 03 00 00 	lea    0x328(%rax),%rdx
  403550:	48 8b 45 f0          	mov    -0x10(%rbp),%rax
  403554:	48 8b 80 68 03 00 00 	mov    0x368(%rax),%rax
  40355b:	48 89 02             	mov    %rax,(%rdx)
  40355e:	48 8b 45 f8          	mov    -0x8(%rbp),%rax
  403562:	48 8d 90 30 03 00 00 	lea    0x330(%rax),%rdx
  403569:	48 8b 45 f0          	mov    -0x10(%rbp),%rax
  40356d:	48 8b 80 70 03 00 00 	mov    0x370(%rax),%rax
  403574:	48 89 02             	mov    %rax,(%rdx)
  403577:	48 8b 45 f8          	mov    -0x8(%rbp),%rax
  40357b:	48 8d 90 38 03 00 00 	lea    0x338(%rax),%rdx
  403582:	48 8b 45 f0          	mov    -0x10(%rbp),%rax
  403586:	48 8b 80 78 03 00 00 	mov    0x378(%rax),%rax
  40358d:	48 89 02             	mov    %rax,(%rdx)
  403590:	48 8b 45 f8          	mov    -0x8(%rbp),%rax
  403594:	48 8d 90 40 03 00 00 	lea    0x340(%rax),%rdx
  40359b:	48 8b 45 f0          	mov    -0x10(%rbp),%rax
  40359f:	48 8b 80 80 03 00 00 	mov    0x380(%rax),%rax
  4035a6:	48 89 02             	mov    %rax,(%rdx)
  4035a9:	48 8b 45 f8          	mov    -0x8(%rbp),%rax
  4035ad:	48 8d 90 48 03 00 00 	lea    0x348(%rax),%rdx
  4035b4:	48 8b 45 f0          	mov    -0x10(%rbp),%rax
  4035b8:	48 8b 80 88 03 00 00 	mov    0x388(%rax),%rax
  4035bf:	48 89 02             	mov    %rax,(%rdx)
  4035c2:	48 8b 45 f8          	mov    -0x8(%rbp),%rax
  4035c6:	48 8d 90 50 03 00 00 	lea    0x350(%rax),%rdx
  4035cd:	48 8b 45 f0          	mov    -0x10(%rbp),%rax
  4035d1:	48 8b 80 90 03 00 00 	mov    0x390(%rax),%rax
  4035d8:	48 89 02             	mov    %rax,(%rdx)
  4035db:	48 8b 45 f8          	mov    -0x8(%rbp),%rax
  4035df:	48 8d 90 58 03 00 00 	lea    0x358(%rax),%rdx
  4035e6:	48 8b 45 f0          	mov    -0x10(%rbp),%rax
  4035ea:	48 8b 80 98 03 00 00 	mov    0x398(%rax),%rax
  4035f1:	48 89 02             	mov    %rax,(%rdx)
  4035f4:	48 8b 45 f8          	mov    -0x8(%rbp),%rax
  4035f8:	48 8d 90 60 03 00 00 	lea    0x360(%rax),%rdx
  4035ff:	48 8b 45 f0          	mov    -0x10(%rbp),%rax
  403603:	48 8b 80 a0 03 00 00 	mov    0x3a0(%rax),%rax
  40360a:	48 89 02             	mov    %rax,(%rdx)
  40360d:	48 8b 45 f8          	mov    -0x8(%rbp),%rax
  403611:	48 8d 90 68 03 00 00 	lea    0x368(%rax),%rdx
  403618:	48 8b 45 f0          	mov    -0x10(%rbp),%rax
  40361c:	48 8b 80 a8 03 00 00 	mov    0x3a8(%rax),%rax
  403623:	48 89 02             	mov    %rax,(%rdx)
  403626:	48 8b 45 f8          	mov    -0x8(%rbp),%rax
  40362a:	48 8d 90 70 03 00 00 	lea    0x370(%rax),%rdx
  403631:	48 8b 45 f0          	mov    -0x10(%rbp),%rax
  403635:	48 8b 80 b0 03 00 00 	mov    0x3b0(%rax),%rax
  40363c:	48 89 02             	mov    %rax,(%rdx)
  40363f:	48 8b 45 f8          	mov    -0x8(%rbp),%rax
  403643:	48 8d 90 78 03 00 00 	lea    0x378(%rax),%rdx
  40364a:	48 8b 45 f0          	mov    -0x10(%rbp),%rax
  40364e:	48 8b 80 b8 03 00 00 	mov    0x3b8(%rax),%rax
  403655:	48 89 02             	mov    %rax,(%rdx)
  403658:	48 8b 45 f8          	mov    -0x8(%rbp),%rax
  40365c:	48 8d 90 80 03 00 00 	lea    0x380(%rax),%rdx
  403663:	48 8b 45 f0          	mov    -0x10(%rbp),%rax
  403667:	48 8b 80 c0 03 00 00 	mov    0x3c0(%rax),%rax
  40366e:	48 89 02             	mov    %rax,(%rdx)
  403671:	48 8b 45 f8          	mov    -0x8(%rbp),%rax
  403675:	48 8d 90 88 03 00 00 	lea    0x388(%rax),%rdx
  40367c:	48 8b 45 f0          	mov    -0x10(%rbp),%rax
  403680:	48 8b 80 c8 03 00 00 	mov    0x3c8(%rax),%rax
  403687:	48 89 02             	mov    %rax,(%rdx)
  40368a:	48 8b 45 f8          	mov    -0x8(%rbp),%rax
  40368e:	48 8d 90 90 03 00 00 	lea    0x390(%rax),%rdx
  403695:	48 8b 45 f0          	mov    -0x10(%rbp),%rax
  403699:	48 8b 80 d0 03 00 00 	mov    0x3d0(%rax),%rax
  4036a0:	48 89 02             	mov    %rax,(%rdx)
  4036a3:	48 8b 45 f8          	mov    -0x8(%rbp),%rax
  4036a7:	48 8d 90 98 03 00 00 	lea    0x398(%rax),%rdx
  4036ae:	48 8b 45 f0          	mov    -0x10(%rbp),%rax
  4036b2:	48 8b 80 d8 03 00 00 	mov    0x3d8(%rax),%rax
  4036b9:	48 89 02             	mov    %rax,(%rdx)
  4036bc:	48 8b 45 f8          	mov    -0x8(%rbp),%rax
  4036c0:	48 8d 90 a0 03 00 00 	lea    0x3a0(%rax),%rdx
  4036c7:	48 8b 45 f0          	mov    -0x10(%rbp),%rax
  4036cb:	48 8b 80 e0 03 00 00 	mov    0x3e0(%rax),%rax
  4036d2:	48 89 02             	mov    %rax,(%rdx)
  4036d5:	48 8b 45 f8          	mov    -0x8(%rbp),%rax
  4036d9:	48 8d 90 a8 03 00 00 	lea    0x3a8(%rax),%rdx
  4036e0:	48 8b 45 f0          	mov    -0x10(%rbp),%rax
  4036e4:	48 8b 80 e8 03 00 00 	mov    0x3e8(%rax),%rax
  4036eb:	48 89 02             	mov    %rax,(%rdx)
  4036ee:	48 8b 45 f8          	mov    -0x8(%rbp),%rax
  4036f2:	48 8d 90 b0 03 00 00 	lea    0x3b0(%rax),%rdx
  4036f9:	48 8b 45 f0          	mov    -0x10(%rbp),%rax
  4036fd:	48 8b 80 f0 03 00 00 	mov    0x3f0(%rax),%rax
  403704:	48 89 02             	mov    %rax,(%rdx)
  403707:	48 8b 45 f8          	mov    -0x8(%rbp),%rax
  40370b:	48 8d 90 b8 03 00 00 	lea    0x3b8(%rax),%rdx
  403712:	48 8b 45 f0          	mov    -0x10(%rbp),%rax
  403716:	48 8b 80 f8 03 00 00 	mov    0x3f8(%rax),%rax
  40371d:	48 89 02             	mov    %rax,(%rdx)
  403720:	5d                   	pop    %rbp
  403721:	c3                   	retq   

0000000000403722 <bs_mixcolumns>:
  403722:	55                   	push   %rbp
  403723:	48 89 e5             	mov    %rsp,%rbp
  403726:	48 89 7d e8          	mov    %rdi,-0x18(%rbp)
  40372a:	48 89 75 e0          	mov    %rsi,-0x20(%rbp)
  40372e:	c7 45 f4 00 00 00 00 	movl   $0x0,-0xc(%rbp)
  403735:	e9 e9 0a 00 00       	jmpq   404223 <bs_mixcolumns+0xb01>
  40373a:	48 8b 45 e0          	mov    -0x20(%rbp),%rax
  40373e:	48 83 c0 38          	add    $0x38,%rax
  403742:	48 8b 10             	mov    (%rax),%rdx
  403745:	48 8b 45 e0          	mov    -0x20(%rbp),%rax
  403749:	48 83 c0 78          	add    $0x78,%rax
  40374d:	48 8b 00             	mov    (%rax),%rax
  403750:	48 31 d0             	xor    %rdx,%rax
  403753:	48 89 45 f8          	mov    %rax,-0x8(%rbp)
  403757:	48 8b 45 e0          	mov    -0x20(%rbp),%rax
  40375b:	48 83 c0 40          	add    $0x40,%rax
  40375f:	48 8b 10             	mov    (%rax),%rdx
  403762:	48 8b 45 e0          	mov    -0x20(%rbp),%rax
  403766:	48 83 e8 80          	sub    $0xffffffffffffff80,%rax
  40376a:	48 8b 00             	mov    (%rax),%rax
  40376d:	48 31 c2             	xor    %rax,%rdx
  403770:	48 8b 45 e0          	mov    -0x20(%rbp),%rax
  403774:	48 05 c0 00 00 00    	add    $0xc0,%rax
  40377a:	48 8b 00             	mov    (%rax),%rax
  40377d:	48 31 d0             	xor    %rdx,%rax
  403780:	48 33 45 f8          	xor    -0x8(%rbp),%rax
  403784:	48 89 c2             	mov    %rax,%rdx
  403787:	48 8b 45 e8          	mov    -0x18(%rbp),%rax
  40378b:	48 89 10             	mov    %rdx,(%rax)
  40378e:	48 8b 45 e8          	mov    -0x18(%rbp),%rax
  403792:	48 8d 50 08          	lea    0x8(%rax),%rdx
  403796:	48 8b 45 e0          	mov    -0x20(%rbp),%rax
  40379a:	48 8b 08             	mov    (%rax),%rcx
  40379d:	48 8b 45 e0          	mov    -0x20(%rbp),%rax
  4037a1:	48 83 c0 40          	add    $0x40,%rax
  4037a5:	48 8b 00             	mov    (%rax),%rax
  4037a8:	48 31 c1             	xor    %rax,%rcx
  4037ab:	48 8b 45 e0          	mov    -0x20(%rbp),%rax
  4037af:	48 83 c0 48          	add    $0x48,%rax
  4037b3:	48 8b 00             	mov    (%rax),%rax
  4037b6:	48 31 c1             	xor    %rax,%rcx
  4037b9:	48 8b 45 e0          	mov    -0x20(%rbp),%rax
  4037bd:	48 05 88 00 00 00    	add    $0x88,%rax
  4037c3:	48 8b 00             	mov    (%rax),%rax
  4037c6:	48 31 c1             	xor    %rax,%rcx
  4037c9:	48 8b 45 e0          	mov    -0x20(%rbp),%rax
  4037cd:	48 05 c8 00 00 00    	add    $0xc8,%rax
  4037d3:	48 8b 00             	mov    (%rax),%rax
  4037d6:	48 31 c8             	xor    %rcx,%rax
  4037d9:	48 33 45 f8          	xor    -0x8(%rbp),%rax
  4037dd:	48 89 02             	mov    %rax,(%rdx)
  4037e0:	48 8b 45 e8          	mov    -0x18(%rbp),%rax
  4037e4:	48 83 c0 10          	add    $0x10,%rax
  4037e8:	48 8b 55 e0          	mov    -0x20(%rbp),%rdx
  4037ec:	48 83 c2 08          	add    $0x8,%rdx
  4037f0:	48 8b 0a             	mov    (%rdx),%rcx
  4037f3:	48 8b 55 e0          	mov    -0x20(%rbp),%rdx
  4037f7:	48 83 c2 48          	add    $0x48,%rdx
  4037fb:	48 8b 12             	mov    (%rdx),%rdx
  4037fe:	48 31 d1             	xor    %rdx,%rcx
  403801:	48 8b 55 e0          	mov    -0x20(%rbp),%rdx
  403805:	48 83 c2 50          	add    $0x50,%rdx
  403809:	48 8b 12             	mov    (%rdx),%rdx
  40380c:	48 31 d1             	xor    %rdx,%rcx
  40380f:	48 8b 55 e0          	mov    -0x20(%rbp),%rdx
  403813:	48 81 c2 90 00 00 00 	add    $0x90,%rdx
  40381a:	48 8b 12             	mov    (%rdx),%rdx
  40381d:	48 31 d1             	xor    %rdx,%rcx
  403820:	48 8b 55 e0          	mov    -0x20(%rbp),%rdx
  403824:	48 81 c2 d0 00 00 00 	add    $0xd0,%rdx
  40382b:	48 8b 12             	mov    (%rdx),%rdx
  40382e:	48 31 ca             	xor    %rcx,%rdx
  403831:	48 89 10             	mov    %rdx,(%rax)
  403834:	48 8b 45 e8          	mov    -0x18(%rbp),%rax
  403838:	48 8d 50 18          	lea    0x18(%rax),%rdx
  40383c:	48 8b 45 e0          	mov    -0x20(%rbp),%rax
  403840:	48 83 c0 10          	add    $0x10,%rax
  403844:	48 8b 08             	mov    (%rax),%rcx
  403847:	48 8b 45 e0          	mov    -0x20(%rbp),%rax
  40384b:	48 83 c0 50          	add    $0x50,%rax
  40384f:	48 8b 00             	mov    (%rax),%rax
  403852:	48 31 c1             	xor    %rax,%rcx
  403855:	48 8b 45 e0          	mov    -0x20(%rbp),%rax
  403859:	48 83 c0 58          	add    $0x58,%rax
  40385d:	48 8b 00             	mov    (%rax),%rax
  403860:	48 31 c1             	xor    %rax,%rcx
  403863:	48 8b 45 e0          	mov    -0x20(%rbp),%rax
  403867:	48 05 98 00 00 00    	add    $0x98,%rax
  40386d:	48 8b 00             	mov    (%rax),%rax
  403870:	48 31 c1             	xor    %rax,%rcx
  403873:	48 8b 45 e0          	mov    -0x20(%rbp),%rax
  403877:	48 05 d8 00 00 00    	add    $0xd8,%rax
  40387d:	48 8b 00             	mov    (%rax),%rax
  403880:	48 31 c8             	xor    %rcx,%rax
  403883:	48 33 45 f8          	xor    -0x8(%rbp),%rax
  403887:	48 89 02             	mov    %rax,(%rdx)
  40388a:	48 8b 45 e8          	mov    -0x18(%rbp),%rax
  40388e:	48 8d 50 20          	lea    0x20(%rax),%rdx
  403892:	48 8b 45 e0          	mov    -0x20(%rbp),%rax
  403896:	48 83 c0 18          	add    $0x18,%rax
  40389a:	48 8b 08             	mov    (%rax),%rcx
  40389d:	48 8b 45 e0          	mov    -0x20(%rbp),%rax
  4038a1:	48 83 c0 58          	add    $0x58,%rax
  4038a5:	48 8b 00             	mov    (%rax),%rax
  4038a8:	48 31 c1             	xor    %rax,%rcx
  4038ab:	48 8b 45 e0          	mov    -0x20(%rbp),%rax
  4038af:	48 83 c0 60          	add    $0x60,%rax
  4038b3:	48 8b 00             	mov    (%rax),%rax
  4038b6:	48 31 c1             	xor    %rax,%rcx
  4038b9:	48 8b 45 e0          	mov    -0x20(%rbp),%rax
  4038bd:	48 05 a0 00 00 00    	add    $0xa0,%rax
  4038c3:	48 8b 00             	mov    (%rax),%rax
  4038c6:	48 31 c1             	xor    %rax,%rcx
  4038c9:	48 8b 45 e0          	mov    -0x20(%rbp),%rax
  4038cd:	48 05 e0 00 00 00    	add    $0xe0,%rax
  4038d3:	48 8b 00             	mov    (%rax),%rax
  4038d6:	48 31 c8             	xor    %rcx,%rax
  4038d9:	48 33 45 f8          	xor    -0x8(%rbp),%rax
  4038dd:	48 89 02             	mov    %rax,(%rdx)
  4038e0:	48 8b 45 e8          	mov    -0x18(%rbp),%rax
  4038e4:	48 83 c0 28          	add    $0x28,%rax
  4038e8:	48 8b 55 e0          	mov    -0x20(%rbp),%rdx
  4038ec:	48 83 c2 20          	add    $0x20,%rdx
  4038f0:	48 8b 0a             	mov    (%rdx),%rcx
  4038f3:	48 8b 55 e0          	mov    -0x20(%rbp),%rdx
  4038f7:	48 83 c2 60          	add    $0x60,%rdx
  4038fb:	48 8b 12             	mov    (%rdx),%rdx
  4038fe:	48 31 d1             	xor    %rdx,%rcx
  403901:	48 8b 55 e0          	mov    -0x20(%rbp),%rdx
  403905:	48 83 c2 68          	add    $0x68,%rdx
  403909:	48 8b 12             	mov    (%rdx),%rdx
  40390c:	48 31 d1             	xor    %rdx,%rcx
  40390f:	48 8b 55 e0          	mov    -0x20(%rbp),%rdx
  403913:	48 81 c2 a8 00 00 00 	add    $0xa8,%rdx
  40391a:	48 8b 12             	mov    (%rdx),%rdx
  40391d:	48 31 d1             	xor    %rdx,%rcx
  403920:	48 8b 55 e0          	mov    -0x20(%rbp),%rdx
  403924:	48 81 c2 e8 00 00 00 	add    $0xe8,%rdx
  40392b:	48 8b 12             	mov    (%rdx),%rdx
  40392e:	48 31 ca             	xor    %rcx,%rdx
  403931:	48 89 10             	mov    %rdx,(%rax)
  403934:	48 8b 45 e8          	mov    -0x18(%rbp),%rax
  403938:	48 83 c0 30          	add    $0x30,%rax
  40393c:	48 8b 55 e0          	mov    -0x20(%rbp),%rdx
  403940:	48 83 c2 28          	add    $0x28,%rdx
  403944:	48 8b 0a             	mov    (%rdx),%rcx
  403947:	48 8b 55 e0          	mov    -0x20(%rbp),%rdx
  40394b:	48 83 c2 68          	add    $0x68,%rdx
  40394f:	48 8b 12             	mov    (%rdx),%rdx
  403952:	48 31 d1             	xor    %rdx,%rcx
  403955:	48 8b 55 e0          	mov    -0x20(%rbp),%rdx
  403959:	48 83 c2 70          	add    $0x70,%rdx
  40395d:	48 8b 12             	mov    (%rdx),%rdx
  403960:	48 31 d1             	xor    %rdx,%rcx
  403963:	48 8b 55 e0          	mov    -0x20(%rbp),%rdx
  403967:	48 81 c2 b0 00 00 00 	add    $0xb0,%rdx
  40396e:	48 8b 12             	mov    (%rdx),%rdx
  403971:	48 31 d1             	xor    %rdx,%rcx
  403974:	48 8b 55 e0          	mov    -0x20(%rbp),%rdx
  403978:	48 81 c2 f0 00 00 00 	add    $0xf0,%rdx
  40397f:	48 8b 12             	mov    (%rdx),%rdx
  403982:	48 31 ca             	xor    %rcx,%rdx
  403985:	48 89 10             	mov    %rdx,(%rax)
  403988:	48 8b 45 e8          	mov    -0x18(%rbp),%rax
  40398c:	48 83 c0 38          	add    $0x38,%rax
  403990:	48 8b 55 e0          	mov    -0x20(%rbp),%rdx
  403994:	48 83 c2 30          	add    $0x30,%rdx
  403998:	48 8b 0a             	mov    (%rdx),%rcx
  40399b:	48 8b 55 e0          	mov    -0x20(%rbp),%rdx
  40399f:	48 83 c2 70          	add    $0x70,%rdx
  4039a3:	48 8b 12             	mov    (%rdx),%rdx
  4039a6:	48 31 d1             	xor    %rdx,%rcx
  4039a9:	48 8b 55 e0          	mov    -0x20(%rbp),%rdx
  4039ad:	48 83 c2 78          	add    $0x78,%rdx
  4039b1:	48 8b 12             	mov    (%rdx),%rdx
  4039b4:	48 31 d1             	xor    %rdx,%rcx
  4039b7:	48 8b 55 e0          	mov    -0x20(%rbp),%rdx
  4039bb:	48 81 c2 b8 00 00 00 	add    $0xb8,%rdx
  4039c2:	48 8b 12             	mov    (%rdx),%rdx
  4039c5:	48 31 d1             	xor    %rdx,%rcx
  4039c8:	48 8b 55 e0          	mov    -0x20(%rbp),%rdx
  4039cc:	48 81 c2 f8 00 00 00 	add    $0xf8,%rdx
  4039d3:	48 8b 12             	mov    (%rdx),%rdx
  4039d6:	48 31 ca             	xor    %rcx,%rdx
  4039d9:	48 89 10             	mov    %rdx,(%rax)
  4039dc:	48 8b 45 e0          	mov    -0x20(%rbp),%rax
  4039e0:	48 83 c0 78          	add    $0x78,%rax
  4039e4:	48 8b 10             	mov    (%rax),%rdx
  4039e7:	48 8b 45 e0          	mov    -0x20(%rbp),%rax
  4039eb:	48 05 b8 00 00 00    	add    $0xb8,%rax
  4039f1:	48 8b 00             	mov    (%rax),%rax
  4039f4:	48 31 d0             	xor    %rdx,%rax
  4039f7:	48 89 45 f8          	mov    %rax,-0x8(%rbp)
  4039fb:	48 8b 45 e8          	mov    -0x18(%rbp),%rax
  4039ff:	48 8d 50 40          	lea    0x40(%rax),%rdx
  403a03:	48 8b 45 e0          	mov    -0x20(%rbp),%rax
  403a07:	48 8b 08             	mov    (%rax),%rcx
  403a0a:	48 8b 45 e0          	mov    -0x20(%rbp),%rax
  403a0e:	48 83 e8 80          	sub    $0xffffffffffffff80,%rax
  403a12:	48 8b 00             	mov    (%rax),%rax
  403a15:	48 31 c1             	xor    %rax,%rcx
  403a18:	48 8b 45 e0          	mov    -0x20(%rbp),%rax
  403a1c:	48 05 c0 00 00 00    	add    $0xc0,%rax
  403a22:	48 8b 00             	mov    (%rax),%rax
  403a25:	48 31 c8             	xor    %rcx,%rax
  403a28:	48 33 45 f8          	xor    -0x8(%rbp),%rax
  403a2c:	48 89 02             	mov    %rax,(%rdx)
  403a2f:	48 8b 45 e8          	mov    -0x18(%rbp),%rax
  403a33:	48 8d 50 48          	lea    0x48(%rax),%rdx
  403a37:	48 8b 45 e0          	mov    -0x20(%rbp),%rax
  403a3b:	48 83 c0 08          	add    $0x8,%rax
  403a3f:	48 8b 08             	mov    (%rax),%rcx
  403a42:	48 8b 45 e0          	mov    -0x20(%rbp),%rax
  403a46:	48 83 c0 40          	add    $0x40,%rax
  403a4a:	48 8b 00             	mov    (%rax),%rax
  403a4d:	48 31 c1             	xor    %rax,%rcx
  403a50:	48 8b 45 e0          	mov    -0x20(%rbp),%rax
  403a54:	48 83 e8 80          	sub    $0xffffffffffffff80,%rax
  403a58:	48 8b 00             	mov    (%rax),%rax
  403a5b:	48 31 c1             	xor    %rax,%rcx
  403a5e:	48 8b 45 e0          	mov    -0x20(%rbp),%rax
  403a62:	48 05 88 00 00 00    	add    $0x88,%rax
  403a68:	48 8b 00             	mov    (%rax),%rax
  403a6b:	48 31 c1             	xor    %rax,%rcx
  403a6e:	48 8b 45 e0          	mov    -0x20(%rbp),%rax
  403a72:	48 05 c8 00 00 00    	add    $0xc8,%rax
  403a78:	48 8b 00             	mov    (%rax),%rax
  403a7b:	48 31 c8             	xor    %rcx,%rax
  403a7e:	48 33 45 f8          	xor    -0x8(%rbp),%rax
  403a82:	48 89 02             	mov    %rax,(%rdx)
  403a85:	48 8b 45 e8          	mov    -0x18(%rbp),%rax
  403a89:	48 83 c0 50          	add    $0x50,%rax
  403a8d:	48 8b 55 e0          	mov    -0x20(%rbp),%rdx
  403a91:	48 83 c2 10          	add    $0x10,%rdx
  403a95:	48 8b 0a             	mov    (%rdx),%rcx
  403a98:	48 8b 55 e0          	mov    -0x20(%rbp),%rdx
  403a9c:	48 83 c2 48          	add    $0x48,%rdx
  403aa0:	48 8b 12             	mov    (%rdx),%rdx
  403aa3:	48 31 d1             	xor    %rdx,%rcx
  403aa6:	48 8b 55 e0          	mov    -0x20(%rbp),%rdx
  403aaa:	48 81 c2 88 00 00 00 	add    $0x88,%rdx
  403ab1:	48 8b 12             	mov    (%rdx),%rdx
  403ab4:	48 31 d1             	xor    %rdx,%rcx
  403ab7:	48 8b 55 e0          	mov    -0x20(%rbp),%rdx
  403abb:	48 81 c2 90 00 00 00 	add    $0x90,%rdx
  403ac2:	48 8b 12             	mov    (%rdx),%rdx
  403ac5:	48 31 d1             	xor    %rdx,%rcx
  403ac8:	48 8b 55 e0          	mov    -0x20(%rbp),%rdx
  403acc:	48 81 c2 d0 00 00 00 	add    $0xd0,%rdx
  403ad3:	48 8b 12             	mov    (%rdx),%rdx
  403ad6:	48 31 ca             	xor    %rcx,%rdx
  403ad9:	48 89 10             	mov    %rdx,(%rax)
  403adc:	48 8b 45 e8          	mov    -0x18(%rbp),%rax
  403ae0:	48 8d 50 58          	lea    0x58(%rax),%rdx
  403ae4:	48 8b 45 e0          	mov    -0x20(%rbp),%rax
  403ae8:	48 83 c0 18          	add    $0x18,%rax
  403aec:	48 8b 08             	mov    (%rax),%rcx
  403aef:	48 8b 45 e0          	mov    -0x20(%rbp),%rax
  403af3:	48 83 c0 50          	add    $0x50,%rax
  403af7:	48 8b 00             	mov    (%rax),%rax
  403afa:	48 31 c1             	xor    %rax,%rcx
  403afd:	48 8b 45 e0          	mov    -0x20(%rbp),%rax
  403b01:	48 05 90 00 00 00    	add    $0x90,%rax
  403b07:	48 8b 00             	mov    (%rax),%rax
  403b0a:	48 31 c1             	xor    %rax,%rcx
  403b0d:	48 8b 45 e0          	mov    -0x20(%rbp),%rax
  403b11:	48 05 98 00 00 00    	add    $0x98,%rax
  403b17:	48 8b 00             	mov    (%rax),%rax
  403b1a:	48 31 c1             	xor    %rax,%rcx
  403b1d:	48 8b 45 e0          	mov    -0x20(%rbp),%rax
  403b21:	48 05 d8 00 00 00    	add    $0xd8,%rax
  403b27:	48 8b 00             	mov    (%rax),%rax
  403b2a:	48 31 c8             	xor    %rcx,%rax
  403b2d:	48 33 45 f8          	xor    -0x8(%rbp),%rax
  403b31:	48 89 02             	mov    %rax,(%rdx)
  403b34:	48 8b 45 e8          	mov    -0x18(%rbp),%rax
  403b38:	48 8d 50 60          	lea    0x60(%rax),%rdx
  403b3c:	48 8b 45 e0          	mov    -0x20(%rbp),%rax
  403b40:	48 83 c0 20          	add    $0x20,%rax
  403b44:	48 8b 08             	mov    (%rax),%rcx
  403b47:	48 8b 45 e0          	mov    -0x20(%rbp),%rax
  403b4b:	48 83 c0 58          	add    $0x58,%rax
  403b4f:	48 8b 00             	mov    (%rax),%rax
  403b52:	48 31 c1             	xor    %rax,%rcx
  403b55:	48 8b 45 e0          	mov    -0x20(%rbp),%rax
  403b59:	48 05 98 00 00 00    	add    $0x98,%rax
  403b5f:	48 8b 00             	mov    (%rax),%rax
  403b62:	48 31 c1             	xor    %rax,%rcx
  403b65:	48 8b 45 e0          	mov    -0x20(%rbp),%rax
  403b69:	48 05 a0 00 00 00    	add    $0xa0,%rax
  403b6f:	48 8b 00             	mov    (%rax),%rax
  403b72:	48 31 c1             	xor    %rax,%rcx
  403b75:	48 8b 45 e0          	mov    -0x20(%rbp),%rax
  403b79:	48 05 e0 00 00 00    	add    $0xe0,%rax
  403b7f:	48 8b 00             	mov    (%rax),%rax
  403b82:	48 31 c8             	xor    %rcx,%rax
  403b85:	48 33 45 f8          	xor    -0x8(%rbp),%rax
  403b89:	48 89 02             	mov    %rax,(%rdx)
  403b8c:	48 8b 45 e8          	mov    -0x18(%rbp),%rax
  403b90:	48 83 c0 68          	add    $0x68,%rax
  403b94:	48 8b 55 e0          	mov    -0x20(%rbp),%rdx
  403b98:	48 83 c2 28          	add    $0x28,%rdx
  403b9c:	48 8b 0a             	mov    (%rdx),%rcx
  403b9f:	48 8b 55 e0          	mov    -0x20(%rbp),%rdx
  403ba3:	48 83 c2 60          	add    $0x60,%rdx
  403ba7:	48 8b 12             	mov    (%rdx),%rdx
  403baa:	48 31 d1             	xor    %rdx,%rcx
  403bad:	48 8b 55 e0          	mov    -0x20(%rbp),%rdx
  403bb1:	48 81 c2 a0 00 00 00 	add    $0xa0,%rdx
  403bb8:	48 8b 12             	mov    (%rdx),%rdx
  403bbb:	48 31 d1             	xor    %rdx,%rcx
  403bbe:	48 8b 55 e0          	mov    -0x20(%rbp),%rdx
  403bc2:	48 81 c2 a8 00 00 00 	add    $0xa8,%rdx
  403bc9:	48 8b 12             	mov    (%rdx),%rdx
  403bcc:	48 31 d1             	xor    %rdx,%rcx
  403bcf:	48 8b 55 e0          	mov    -0x20(%rbp),%rdx
  403bd3:	48 81 c2 e8 00 00 00 	add    $0xe8,%rdx
  403bda:	48 8b 12             	mov    (%rdx),%rdx
  403bdd:	48 31 ca             	xor    %rcx,%rdx
  403be0:	48 89 10             	mov    %rdx,(%rax)
  403be3:	48 8b 45 e8          	mov    -0x18(%rbp),%rax
  403be7:	48 83 c0 70          	add    $0x70,%rax
  403beb:	48 8b 55 e0          	mov    -0x20(%rbp),%rdx
  403bef:	48 83 c2 30          	add    $0x30,%rdx
  403bf3:	48 8b 0a             	mov    (%rdx),%rcx
  403bf6:	48 8b 55 e0          	mov    -0x20(%rbp),%rdx
  403bfa:	48 83 c2 68          	add    $0x68,%rdx
  403bfe:	48 8b 12             	mov    (%rdx),%rdx
  403c01:	48 31 d1             	xor    %rdx,%rcx
  403c04:	48 8b 55 e0          	mov    -0x20(%rbp),%rdx
  403c08:	48 81 c2 a8 00 00 00 	add    $0xa8,%rdx
  403c0f:	48 8b 12             	mov    (%rdx),%rdx
  403c12:	48 31 d1             	xor    %rdx,%rcx
  403c15:	48 8b 55 e0          	mov    -0x20(%rbp),%rdx
  403c19:	48 81 c2 b0 00 00 00 	add    $0xb0,%rdx
  403c20:	48 8b 12             	mov    (%rdx),%rdx
  403c23:	48 31 d1             	xor    %rdx,%rcx
  403c26:	48 8b 55 e0          	mov    -0x20(%rbp),%rdx
  403c2a:	48 81 c2 f0 00 00 00 	add    $0xf0,%rdx
  403c31:	48 8b 12             	mov    (%rdx),%rdx
  403c34:	48 31 ca             	xor    %rcx,%rdx
  403c37:	48 89 10             	mov    %rdx,(%rax)
  403c3a:	48 8b 45 e8          	mov    -0x18(%rbp),%rax
  403c3e:	48 83 c0 78          	add    $0x78,%rax
  403c42:	48 8b 55 e0          	mov    -0x20(%rbp),%rdx
  403c46:	48 83 c2 38          	add    $0x38,%rdx
  403c4a:	48 8b 0a             	mov    (%rdx),%rcx
  403c4d:	48 8b 55 e0          	mov    -0x20(%rbp),%rdx
  403c51:	48 83 c2 70          	add    $0x70,%rdx
  403c55:	48 8b 12             	mov    (%rdx),%rdx
  403c58:	48 31 d1             	xor    %rdx,%rcx
  403c5b:	48 8b 55 e0          	mov    -0x20(%rbp),%rdx
  403c5f:	48 81 c2 b0 00 00 00 	add    $0xb0,%rdx
  403c66:	48 8b 12             	mov    (%rdx),%rdx
  403c69:	48 31 d1             	xor    %rdx,%rcx
  403c6c:	48 8b 55 e0          	mov    -0x20(%rbp),%rdx
  403c70:	48 81 c2 b8 00 00 00 	add    $0xb8,%rdx
  403c77:	48 8b 12             	mov    (%rdx),%rdx
  403c7a:	48 31 d1             	xor    %rdx,%rcx
  403c7d:	48 8b 55 e0          	mov    -0x20(%rbp),%rdx
  403c81:	48 81 c2 f8 00 00 00 	add    $0xf8,%rdx
  403c88:	48 8b 12             	mov    (%rdx),%rdx
  403c8b:	48 31 ca             	xor    %rcx,%rdx
  403c8e:	48 89 10             	mov    %rdx,(%rax)
  403c91:	48 8b 45 e0          	mov    -0x20(%rbp),%rax
  403c95:	48 05 b8 00 00 00    	add    $0xb8,%rax
  403c9b:	48 8b 10             	mov    (%rax),%rdx
  403c9e:	48 8b 45 e0          	mov    -0x20(%rbp),%rax
  403ca2:	48 05 f8 00 00 00    	add    $0xf8,%rax
  403ca8:	48 8b 00             	mov    (%rax),%rax
  403cab:	48 31 d0             	xor    %rdx,%rax
  403cae:	48 89 45 f8          	mov    %rax,-0x8(%rbp)
  403cb2:	48 8b 45 e8          	mov    -0x18(%rbp),%rax
  403cb6:	48 8d 90 80 00 00 00 	lea    0x80(%rax),%rdx
  403cbd:	48 8b 45 e0          	mov    -0x20(%rbp),%rax
  403cc1:	48 8b 08             	mov    (%rax),%rcx
  403cc4:	48 8b 45 e0          	mov    -0x20(%rbp),%rax
  403cc8:	48 83 c0 40          	add    $0x40,%rax
  403ccc:	48 8b 00             	mov    (%rax),%rax
  403ccf:	48 31 c1             	xor    %rax,%rcx
  403cd2:	48 8b 45 e0          	mov    -0x20(%rbp),%rax
  403cd6:	48 05 c0 00 00 00    	add    $0xc0,%rax
  403cdc:	48 8b 00             	mov    (%rax),%rax
  403cdf:	48 31 c8             	xor    %rcx,%rax
  403ce2:	48 33 45 f8          	xor    -0x8(%rbp),%rax
  403ce6:	48 89 02             	mov    %rax,(%rdx)
  403ce9:	48 8b 45 e8          	mov    -0x18(%rbp),%rax
  403ced:	48 8d 90 88 00 00 00 	lea    0x88(%rax),%rdx
  403cf4:	48 8b 45 e0          	mov    -0x20(%rbp),%rax
  403cf8:	48 83 c0 08          	add    $0x8,%rax
  403cfc:	48 8b 08             	mov    (%rax),%rcx
  403cff:	48 8b 45 e0          	mov    -0x20(%rbp),%rax
  403d03:	48 83 c0 48          	add    $0x48,%rax
  403d07:	48 8b 00             	mov    (%rax),%rax
  403d0a:	48 31 c1             	xor    %rax,%rcx
  403d0d:	48 8b 45 e0          	mov    -0x20(%rbp),%rax
  403d11:	48 83 e8 80          	sub    $0xffffffffffffff80,%rax
  403d15:	48 8b 00             	mov    (%rax),%rax
  403d18:	48 31 c1             	xor    %rax,%rcx
  403d1b:	48 8b 45 e0          	mov    -0x20(%rbp),%rax
  403d1f:	48 05 c0 00 00 00    	add    $0xc0,%rax
  403d25:	48 8b 00             	mov    (%rax),%rax
  403d28:	48 31 c1             	xor    %rax,%rcx
  403d2b:	48 8b 45 e0          	mov    -0x20(%rbp),%rax
  403d2f:	48 05 c8 00 00 00    	add    $0xc8,%rax
  403d35:	48 8b 00             	mov    (%rax),%rax
  403d38:	48 31 c8             	xor    %rcx,%rax
  403d3b:	48 33 45 f8          	xor    -0x8(%rbp),%rax
  403d3f:	48 89 02             	mov    %rax,(%rdx)
  403d42:	48 8b 45 e8          	mov    -0x18(%rbp),%rax
  403d46:	48 05 90 00 00 00    	add    $0x90,%rax
  403d4c:	48 8b 55 e0          	mov    -0x20(%rbp),%rdx
  403d50:	48 83 c2 10          	add    $0x10,%rdx
  403d54:	48 8b 0a             	mov    (%rdx),%rcx
  403d57:	48 8b 55 e0          	mov    -0x20(%rbp),%rdx
  403d5b:	48 83 c2 50          	add    $0x50,%rdx
  403d5f:	48 8b 12             	mov    (%rdx),%rdx
  403d62:	48 31 d1             	xor    %rdx,%rcx
  403d65:	48 8b 55 e0          	mov    -0x20(%rbp),%rdx
  403d69:	48 81 c2 88 00 00 00 	add    $0x88,%rdx
  403d70:	48 8b 12             	mov    (%rdx),%rdx
  403d73:	48 31 d1             	xor    %rdx,%rcx
  403d76:	48 8b 55 e0          	mov    -0x20(%rbp),%rdx
  403d7a:	48 81 c2 c8 00 00 00 	add    $0xc8,%rdx
  403d81:	48 8b 12             	mov    (%rdx),%rdx
  403d84:	48 31 d1             	xor    %rdx,%rcx
  403d87:	48 8b 55 e0          	mov    -0x20(%rbp),%rdx
  403d8b:	48 81 c2 d0 00 00 00 	add    $0xd0,%rdx
  403d92:	48 8b 12             	mov    (%rdx),%rdx
  403d95:	48 31 ca             	xor    %rcx,%rdx
  403d98:	48 89 10             	mov    %rdx,(%rax)
  403d9b:	48 8b 45 e8          	mov    -0x18(%rbp),%rax
  403d9f:	48 8d 90 98 00 00 00 	lea    0x98(%rax),%rdx
  403da6:	48 8b 45 e0          	mov    -0x20(%rbp),%rax
  403daa:	48 83 c0 18          	add    $0x18,%rax
  403dae:	48 8b 08             	mov    (%rax),%rcx
  403db1:	48 8b 45 e0          	mov    -0x20(%rbp),%rax
  403db5:	48 83 c0 58          	add    $0x58,%rax
  403db9:	48 8b 00             	mov    (%rax),%rax
  403dbc:	48 31 c1             	xor    %rax,%rcx
  403dbf:	48 8b 45 e0          	mov    -0x20(%rbp),%rax
  403dc3:	48 05 90 00 00 00    	add    $0x90,%rax
  403dc9:	48 8b 00             	mov    (%rax),%rax
  403dcc:	48 31 c1             	xor    %rax,%rcx
  403dcf:	48 8b 45 e0          	mov    -0x20(%rbp),%rax
  403dd3:	48 05 d0 00 00 00    	add    $0xd0,%rax
  403dd9:	48 8b 00             	mov    (%rax),%rax
  403ddc:	48 31 c1             	xor    %rax,%rcx
  403ddf:	48 8b 45 e0          	mov    -0x20(%rbp),%rax
  403de3:	48 05 d8 00 00 00    	add    $0xd8,%rax
  403de9:	48 8b 00             	mov    (%rax),%rax
  403dec:	48 31 c8             	xor    %rcx,%rax
  403def:	48 33 45 f8          	xor    -0x8(%rbp),%rax
  403df3:	48 89 02             	mov    %rax,(%rdx)
  403df6:	48 8b 45 e8          	mov    -0x18(%rbp),%rax
  403dfa:	48 8d 90 a0 00 00 00 	lea    0xa0(%rax),%rdx
  403e01:	48 8b 45 e0          	mov    -0x20(%rbp),%rax
  403e05:	48 83 c0 20          	add    $0x20,%rax
  403e09:	48 8b 08             	mov    (%rax),%rcx
  403e0c:	48 8b 45 e0          	mov    -0x20(%rbp),%rax
  403e10:	48 83 c0 60          	add    $0x60,%rax
  403e14:	48 8b 00             	mov    (%rax),%rax
  403e17:	48 31 c1             	xor    %rax,%rcx
  403e1a:	48 8b 45 e0          	mov    -0x20(%rbp),%rax
  403e1e:	48 05 98 00 00 00    	add    $0x98,%rax
  403e24:	48 8b 00             	mov    (%rax),%rax
  403e27:	48 31 c1             	xor    %rax,%rcx
  403e2a:	48 8b 45 e0          	mov    -0x20(%rbp),%rax
  403e2e:	48 05 d8 00 00 00    	add    $0xd8,%rax
  403e34:	48 8b 00             	mov    (%rax),%rax
  403e37:	48 31 c1             	xor    %rax,%rcx
  403e3a:	48 8b 45 e0          	mov    -0x20(%rbp),%rax
  403e3e:	48 05 e0 00 00 00    	add    $0xe0,%rax
  403e44:	48 8b 00             	mov    (%rax),%rax
  403e47:	48 31 c8             	xor    %rcx,%rax
  403e4a:	48 33 45 f8          	xor    -0x8(%rbp),%rax
  403e4e:	48 89 02             	mov    %rax,(%rdx)
  403e51:	48 8b 45 e8          	mov    -0x18(%rbp),%rax
  403e55:	48 05 a8 00 00 00    	add    $0xa8,%rax
  403e5b:	48 8b 55 e0          	mov    -0x20(%rbp),%rdx
  403e5f:	48 83 c2 28          	add    $0x28,%rdx
  403e63:	48 8b 0a             	mov    (%rdx),%rcx
  403e66:	48 8b 55 e0          	mov    -0x20(%rbp),%rdx
  403e6a:	48 83 c2 68          	add    $0x68,%rdx
  403e6e:	48 8b 12             	mov    (%rdx),%rdx
  403e71:	48 31 d1             	xor    %rdx,%rcx
  403e74:	48 8b 55 e0          	mov    -0x20(%rbp),%rdx
  403e78:	48 81 c2 a0 00 00 00 	add    $0xa0,%rdx
  403e7f:	48 8b 12             	mov    (%rdx),%rdx
  403e82:	48 31 d1             	xor    %rdx,%rcx
  403e85:	48 8b 55 e0          	mov    -0x20(%rbp),%rdx
  403e89:	48 81 c2 e0 00 00 00 	add    $0xe0,%rdx
  403e90:	48 8b 12             	mov    (%rdx),%rdx
  403e93:	48 31 d1             	xor    %rdx,%rcx
  403e96:	48 8b 55 e0          	mov    -0x20(%rbp),%rdx
  403e9a:	48 81 c2 e8 00 00 00 	add    $0xe8,%rdx
  403ea1:	48 8b 12             	mov    (%rdx),%rdx
  403ea4:	48 31 ca             	xor    %rcx,%rdx
  403ea7:	48 89 10             	mov    %rdx,(%rax)
  403eaa:	48 8b 45 e8          	mov    -0x18(%rbp),%rax
  403eae:	48 05 b0 00 00 00    	add    $0xb0,%rax
  403eb4:	48 8b 55 e0          	mov    -0x20(%rbp),%rdx
  403eb8:	48 83 c2 30          	add    $0x30,%rdx
  403ebc:	48 8b 0a             	mov    (%rdx),%rcx
  403ebf:	48 8b 55 e0          	mov    -0x20(%rbp),%rdx
  403ec3:	48 83 c2 70          	add    $0x70,%rdx
  403ec7:	48 8b 12             	mov    (%rdx),%rdx
  403eca:	48 31 d1             	xor    %rdx,%rcx
  403ecd:	48 8b 55 e0          	mov    -0x20(%rbp),%rdx
  403ed1:	48 81 c2 a8 00 00 00 	add    $0xa8,%rdx
  403ed8:	48 8b 12             	mov    (%rdx),%rdx
  403edb:	48 31 d1             	xor    %rdx,%rcx
  403ede:	48 8b 55 e0          	mov    -0x20(%rbp),%rdx
  403ee2:	48 81 c2 e8 00 00 00 	add    $0xe8,%rdx
  403ee9:	48 8b 12             	mov    (%rdx),%rdx
  403eec:	48 31 d1             	xor    %rdx,%rcx
  403eef:	48 8b 55 e0          	mov    -0x20(%rbp),%rdx
  403ef3:	48 81 c2 f0 00 00 00 	add    $0xf0,%rdx
  403efa:	48 8b 12             	mov    (%rdx),%rdx
  403efd:	48 31 ca             	xor    %rcx,%rdx
  403f00:	48 89 10             	mov    %rdx,(%rax)
  403f03:	48 8b 45 e8          	mov    -0x18(%rbp),%rax
  403f07:	48 05 b8 00 00 00    	add    $0xb8,%rax
  403f0d:	48 8b 55 e0          	mov    -0x20(%rbp),%rdx
  403f11:	48 83 c2 38          	add    $0x38,%rdx
  403f15:	48 8b 0a             	mov    (%rdx),%rcx
  403f18:	48 8b 55 e0          	mov    -0x20(%rbp),%rdx
  403f1c:	48 83 c2 78          	add    $0x78,%rdx
  403f20:	48 8b 12             	mov    (%rdx),%rdx
  403f23:	48 31 d1             	xor    %rdx,%rcx
  403f26:	48 8b 55 e0          	mov    -0x20(%rbp),%rdx
  403f2a:	48 81 c2 b0 00 00 00 	add    $0xb0,%rdx
  403f31:	48 8b 12             	mov    (%rdx),%rdx
  403f34:	48 31 d1             	xor    %rdx,%rcx
  403f37:	48 8b 55 e0          	mov    -0x20(%rbp),%rdx
  403f3b:	48 81 c2 f0 00 00 00 	add    $0xf0,%rdx
  403f42:	48 8b 12             	mov    (%rdx),%rdx
  403f45:	48 31 d1             	xor    %rdx,%rcx
  403f48:	48 8b 55 e0          	mov    -0x20(%rbp),%rdx
  403f4c:	48 81 c2 f8 00 00 00 	add    $0xf8,%rdx
  403f53:	48 8b 12             	mov    (%rdx),%rdx
  403f56:	48 31 ca             	xor    %rcx,%rdx
  403f59:	48 89 10             	mov    %rdx,(%rax)
  403f5c:	48 8b 45 e0          	mov    -0x20(%rbp),%rax
  403f60:	48 83 c0 38          	add    $0x38,%rax
  403f64:	48 8b 10             	mov    (%rax),%rdx
  403f67:	48 8b 45 e0          	mov    -0x20(%rbp),%rax
  403f6b:	48 05 f8 00 00 00    	add    $0xf8,%rax
  403f71:	48 8b 00             	mov    (%rax),%rax
  403f74:	48 31 d0             	xor    %rdx,%rax
  403f77:	48 89 45 f8          	mov    %rax,-0x8(%rbp)
  403f7b:	48 8b 45 e8          	mov    -0x18(%rbp),%rax
  403f7f:	48 8d 90 c0 00 00 00 	lea    0xc0(%rax),%rdx
  403f86:	48 8b 45 e0          	mov    -0x20(%rbp),%rax
  403f8a:	48 8b 08             	mov    (%rax),%rcx
  403f8d:	48 8b 45 e0          	mov    -0x20(%rbp),%rax
  403f91:	48 83 c0 40          	add    $0x40,%rax
  403f95:	48 8b 00             	mov    (%rax),%rax
  403f98:	48 31 c1             	xor    %rax,%rcx
  403f9b:	48 8b 45 e0          	mov    -0x20(%rbp),%rax
  403f9f:	48 83 e8 80          	sub    $0xffffffffffffff80,%rax
  403fa3:	48 8b 00             	mov    (%rax),%rax
  403fa6:	48 31 c8             	xor    %rcx,%rax
  403fa9:	48 33 45 f8          	xor    -0x8(%rbp),%rax
  403fad:	48 89 02             	mov    %rax,(%rdx)
  403fb0:	48 8b 45 e8          	mov    -0x18(%rbp),%rax
  403fb4:	48 8d 90 c8 00 00 00 	lea    0xc8(%rax),%rdx
  403fbb:	48 8b 45 e0          	mov    -0x20(%rbp),%rax
  403fbf:	48 83 c0 08          	add    $0x8,%rax
  403fc3:	48 8b 08             	mov    (%rax),%rcx
  403fc6:	48 8b 45 e0          	mov    -0x20(%rbp),%rax
  403fca:	48 8b 00             	mov    (%rax),%rax
  403fcd:	48 31 c1             	xor    %rax,%rcx
  403fd0:	48 8b 45 e0          	mov    -0x20(%rbp),%rax
  403fd4:	48 83 c0 48          	add    $0x48,%rax
  403fd8:	48 8b 00             	mov    (%rax),%rax
  403fdb:	48 31 c1             	xor    %rax,%rcx
  403fde:	48 8b 45 e0          	mov    -0x20(%rbp),%rax
  403fe2:	48 05 88 00 00 00    	add    $0x88,%rax
  403fe8:	48 8b 00             	mov    (%rax),%rax
  403feb:	48 31 c1             	xor    %rax,%rcx
  403fee:	48 8b 45 e0          	mov    -0x20(%rbp),%rax
  403ff2:	48 05 c0 00 00 00    	add    $0xc0,%rax
  403ff8:	48 8b 00             	mov    (%rax),%rax
  403ffb:	48 31 c8             	xor    %rcx,%rax
  403ffe:	48 33 45 f8          	xor    -0x8(%rbp),%rax
  404002:	48 89 02             	mov    %rax,(%rdx)
  404005:	48 8b 45 e8          	mov    -0x18(%rbp),%rax
  404009:	48 05 d0 00 00 00    	add    $0xd0,%rax
  40400f:	48 8b 55 e0          	mov    -0x20(%rbp),%rdx
  404013:	48 83 c2 10          	add    $0x10,%rdx
  404017:	48 8b 0a             	mov    (%rdx),%rcx
  40401a:	48 8b 55 e0          	mov    -0x20(%rbp),%rdx
  40401e:	48 83 c2 08          	add    $0x8,%rdx
  404022:	48 8b 12             	mov    (%rdx),%rdx
  404025:	48 31 d1             	xor    %rdx,%rcx
  404028:	48 8b 55 e0          	mov    -0x20(%rbp),%rdx
  40402c:	48 83 c2 50          	add    $0x50,%rdx
  404030:	48 8b 12             	mov    (%rdx),%rdx
  404033:	48 31 d1             	xor    %rdx,%rcx
  404036:	48 8b 55 e0          	mov    -0x20(%rbp),%rdx
  40403a:	48 81 c2 90 00 00 00 	add    $0x90,%rdx
  404041:	48 8b 12             	mov    (%rdx),%rdx
  404044:	48 31 d1             	xor    %rdx,%rcx
  404047:	48 8b 55 e0          	mov    -0x20(%rbp),%rdx
  40404b:	48 81 c2 c8 00 00 00 	add    $0xc8,%rdx
  404052:	48 8b 12             	mov    (%rdx),%rdx
  404055:	48 31 ca             	xor    %rcx,%rdx
  404058:	48 89 10             	mov    %rdx,(%rax)
  40405b:	48 8b 45 e8          	mov    -0x18(%rbp),%rax
  40405f:	48 8d 90 d8 00 00 00 	lea    0xd8(%rax),%rdx
  404066:	48 8b 45 e0          	mov    -0x20(%rbp),%rax
  40406a:	48 83 c0 18          	add    $0x18,%rax
  40406e:	48 8b 08             	mov    (%rax),%rcx
  404071:	48 8b 45 e0          	mov    -0x20(%rbp),%rax
  404075:	48 83 c0 10          	add    $0x10,%rax
  404079:	48 8b 00             	mov    (%rax),%rax
  40407c:	48 31 c1             	xor    %rax,%rcx
  40407f:	48 8b 45 e0          	mov    -0x20(%rbp),%rax
  404083:	48 83 c0 58          	add    $0x58,%rax
  404087:	48 8b 00             	mov    (%rax),%rax
  40408a:	48 31 c1             	xor    %rax,%rcx
  40408d:	48 8b 45 e0          	mov    -0x20(%rbp),%rax
  404091:	48 05 98 00 00 00    	add    $0x98,%rax
  404097:	48 8b 00             	mov    (%rax),%rax
  40409a:	48 31 c1             	xor    %rax,%rcx
  40409d:	48 8b 45 e0          	mov    -0x20(%rbp),%rax
  4040a1:	48 05 d0 00 00 00    	add    $0xd0,%rax
  4040a7:	48 8b 00             	mov    (%rax),%rax
  4040aa:	48 31 c8             	xor    %rcx,%rax
  4040ad:	48 33 45 f8          	xor    -0x8(%rbp),%rax
  4040b1:	48 89 02             	mov    %rax,(%rdx)
  4040b4:	48 8b 45 e8          	mov    -0x18(%rbp),%rax
  4040b8:	48 8d 90 e0 00 00 00 	lea    0xe0(%rax),%rdx
  4040bf:	48 8b 45 e0          	mov    -0x20(%rbp),%rax
  4040c3:	48 83 c0 20          	add    $0x20,%rax
  4040c7:	48 8b 08             	mov    (%rax),%rcx
  4040ca:	48 8b 45 e0          	mov    -0x20(%rbp),%rax
  4040ce:	48 83 c0 18          	add    $0x18,%rax
  4040d2:	48 8b 00             	mov    (%rax),%rax
  4040d5:	48 31 c1             	xor    %rax,%rcx
  4040d8:	48 8b 45 e0          	mov    -0x20(%rbp),%rax
  4040dc:	48 83 c0 60          	add    $0x60,%rax
  4040e0:	48 8b 00             	mov    (%rax),%rax
  4040e3:	48 31 c1             	xor    %rax,%rcx
  4040e6:	48 8b 45 e0          	mov    -0x20(%rbp),%rax
  4040ea:	48 05 a0 00 00 00    	add    $0xa0,%rax
  4040f0:	48 8b 00             	mov    (%rax),%rax
  4040f3:	48 31 c1             	xor    %rax,%rcx
  4040f6:	48 8b 45 e0          	mov    -0x20(%rbp),%rax
  4040fa:	48 05 d8 00 00 00    	add    $0xd8,%rax
  404100:	48 8b 00             	mov    (%rax),%rax
  404103:	48 31 c8             	xor    %rcx,%rax
  404106:	48 33 45 f8          	xor    -0x8(%rbp),%rax
  40410a:	48 89 02             	mov    %rax,(%rdx)
  40410d:	48 8b 45 e8          	mov    -0x18(%rbp),%rax
  404111:	48 05 e8 00 00 00    	add    $0xe8,%rax
  404117:	48 8b 55 e0          	mov    -0x20(%rbp),%rdx
  40411b:	48 83 c2 28          	add    $0x28,%rdx
  40411f:	48 8b 0a             	mov    (%rdx),%rcx
  404122:	48 8b 55 e0          	mov    -0x20(%rbp),%rdx
  404126:	48 83 c2 20          	add    $0x20,%rdx
  40412a:	48 8b 12             	mov    (%rdx),%rdx
  40412d:	48 31 d1             	xor    %rdx,%rcx
  404130:	48 8b 55 e0          	mov    -0x20(%rbp),%rdx
  404134:	48 83 c2 68          	add    $0x68,%rdx
  404138:	48 8b 12             	mov    (%rdx),%rdx
  40413b:	48 31 d1             	xor    %rdx,%rcx
  40413e:	48 8b 55 e0          	mov    -0x20(%rbp),%rdx
  404142:	48 81 c2 a8 00 00 00 	add    $0xa8,%rdx
  404149:	48 8b 12             	mov    (%rdx),%rdx
  40414c:	48 31 d1             	xor    %rdx,%rcx
  40414f:	48 8b 55 e0          	mov    -0x20(%rbp),%rdx
  404153:	48 81 c2 e0 00 00 00 	add    $0xe0,%rdx
  40415a:	48 8b 12             	mov    (%rdx),%rdx
  40415d:	48 31 ca             	xor    %rcx,%rdx
  404160:	48 89 10             	mov    %rdx,(%rax)
  404163:	48 8b 45 e8          	mov    -0x18(%rbp),%rax
  404167:	48 05 f0 00 00 00    	add    $0xf0,%rax
  40416d:	48 8b 55 e0          	mov    -0x20(%rbp),%rdx
  404171:	48 83 c2 30          	add    $0x30,%rdx
  404175:	48 8b 0a             	mov    (%rdx),%rcx
  404178:	48 8b 55 e0          	mov    -0x20(%rbp),%rdx
  40417c:	48 83 c2 28          	add    $0x28,%rdx
  404180:	48 8b 12             	mov    (%rdx),%rdx
  404183:	48 31 d1             	xor    %rdx,%rcx
  404186:	48 8b 55 e0          	mov    -0x20(%rbp),%rdx
  40418a:	48 83 c2 70          	add    $0x70,%rdx
  40418e:	48 8b 12             	mov    (%rdx),%rdx
  404191:	48 31 d1             	xor    %rdx,%rcx
  404194:	48 8b 55 e0          	mov    -0x20(%rbp),%rdx
  404198:	48 81 c2 b0 00 00 00 	add    $0xb0,%rdx
  40419f:	48 8b 12             	mov    (%rdx),%rdx
  4041a2:	48 31 d1             	xor    %rdx,%rcx
  4041a5:	48 8b 55 e0          	mov    -0x20(%rbp),%rdx
  4041a9:	48 81 c2 e8 00 00 00 	add    $0xe8,%rdx
  4041b0:	48 8b 12             	mov    (%rdx),%rdx
  4041b3:	48 31 ca             	xor    %rcx,%rdx
  4041b6:	48 89 10             	mov    %rdx,(%rax)
  4041b9:	48 8b 45 e8          	mov    -0x18(%rbp),%rax
  4041bd:	48 05 f8 00 00 00    	add    $0xf8,%rax
  4041c3:	48 8b 55 e0          	mov    -0x20(%rbp),%rdx
  4041c7:	48 83 c2 38          	add    $0x38,%rdx
  4041cb:	48 8b 0a             	mov    (%rdx),%rcx
  4041ce:	48 8b 55 e0          	mov    -0x20(%rbp),%rdx
  4041d2:	48 83 c2 30          	add    $0x30,%rdx
  4041d6:	48 8b 12             	mov    (%rdx),%rdx
  4041d9:	48 31 d1             	xor    %rdx,%rcx
  4041dc:	48 8b 55 e0          	mov    -0x20(%rbp),%rdx
  4041e0:	48 83 c2 78          	add    $0x78,%rdx
  4041e4:	48 8b 12             	mov    (%rdx),%rdx
  4041e7:	48 31 d1             	xor    %rdx,%rcx
  4041ea:	48 8b 55 e0          	mov    -0x20(%rbp),%rdx
  4041ee:	48 81 c2 b8 00 00 00 	add    $0xb8,%rdx
  4041f5:	48 8b 12             	mov    (%rdx),%rdx
  4041f8:	48 31 d1             	xor    %rdx,%rcx
  4041fb:	48 8b 55 e0          	mov    -0x20(%rbp),%rdx
  4041ff:	48 81 c2 f0 00 00 00 	add    $0xf0,%rdx
  404206:	48 8b 12             	mov    (%rdx),%rdx
  404209:	48 31 ca             	xor    %rcx,%rdx
  40420c:	48 89 10             	mov    %rdx,(%rax)
  40420f:	48 81 45 e8 00 01 00 	addq   $0x100,-0x18(%rbp)
  404216:	00 
  404217:	48 81 45 e0 00 01 00 	addq   $0x100,-0x20(%rbp)
  40421e:	00 
  40421f:	83 45 f4 08          	addl   $0x8,-0xc(%rbp)
  404223:	83 7d f4 1f          	cmpl   $0x1f,-0xc(%rbp)
  404227:	0f 8e 0d f5 ff ff    	jle    40373a <bs_mixcolumns+0x18>
  40422d:	5d                   	pop    %rbp
  40422e:	c3                   	retq   

000000000040422f <bs_mixcolumns_rev>:
  40422f:	55                   	push   %rbp
  404230:	48 89 e5             	mov    %rsp,%rbp
  404233:	48 89 7d d8          	mov    %rdi,-0x28(%rbp)
  404237:	48 89 75 d0          	mov    %rsi,-0x30(%rbp)
  40423b:	c7 45 e4 00 00 00 00 	movl   $0x0,-0x1c(%rbp)
  404242:	e9 a9 16 00 00       	jmpq   4058f0 <bs_mixcolumns_rev+0x16c1>
  404247:	48 8b 45 d0          	mov    -0x30(%rbp),%rax
  40424b:	48 83 c0 38          	add    $0x38,%rax
  40424f:	48 8b 10             	mov    (%rax),%rdx
  404252:	48 8b 45 d0          	mov    -0x30(%rbp),%rax
  404256:	48 83 c0 30          	add    $0x30,%rax
  40425a:	48 8b 00             	mov    (%rax),%rax
  40425d:	48 31 c2             	xor    %rax,%rdx
  404260:	48 8b 45 d0          	mov    -0x30(%rbp),%rax
  404264:	48 83 c0 28          	add    $0x28,%rax
  404268:	48 8b 00             	mov    (%rax),%rax
  40426b:	48 31 c2             	xor    %rax,%rdx
  40426e:	48 89 d1             	mov    %rdx,%rcx
  404271:	48 8b 45 d0          	mov    -0x30(%rbp),%rax
  404275:	48 83 c0 78          	add    $0x78,%rax
  404279:	48 8b 10             	mov    (%rax),%rdx
  40427c:	48 8b 45 d0          	mov    -0x30(%rbp),%rax
  404280:	48 83 c0 68          	add    $0x68,%rax
  404284:	48 8b 00             	mov    (%rax),%rax
  404287:	48 31 d0             	xor    %rdx,%rax
  40428a:	48 31 c1             	xor    %rax,%rcx
  40428d:	48 8b 45 d0          	mov    -0x30(%rbp),%rax
  404291:	48 05 b0 00 00 00    	add    $0xb0,%rax
  404297:	48 8b 10             	mov    (%rax),%rdx
  40429a:	48 8b 45 d0          	mov    -0x30(%rbp),%rax
  40429e:	48 05 a8 00 00 00    	add    $0xa8,%rax
  4042a4:	48 8b 00             	mov    (%rax),%rax
  4042a7:	48 31 d0             	xor    %rdx,%rax
  4042aa:	48 89 ca             	mov    %rcx,%rdx
  4042ad:	48 31 c2             	xor    %rax,%rdx
  4042b0:	48 8b 45 d0          	mov    -0x30(%rbp),%rax
  4042b4:	48 05 e8 00 00 00    	add    $0xe8,%rax
  4042ba:	48 8b 00             	mov    (%rax),%rax
  4042bd:	48 31 d0             	xor    %rdx,%rax
  4042c0:	48 89 45 e8          	mov    %rax,-0x18(%rbp)
  4042c4:	48 8b 45 d0          	mov    -0x30(%rbp),%rax
  4042c8:	48 83 c0 38          	add    $0x38,%rax
  4042cc:	48 8b 10             	mov    (%rax),%rdx
  4042cf:	48 8b 45 d0          	mov    -0x30(%rbp),%rax
  4042d3:	48 83 c0 30          	add    $0x30,%rax
  4042d7:	48 8b 00             	mov    (%rax),%rax
  4042da:	48 31 c2             	xor    %rax,%rdx
  4042dd:	48 8b 45 d0          	mov    -0x30(%rbp),%rax
  4042e1:	48 83 c0 70          	add    $0x70,%rax
  4042e5:	48 8b 00             	mov    (%rax),%rax
  4042e8:	48 31 c2             	xor    %rax,%rdx
  4042eb:	48 89 d1             	mov    %rdx,%rcx
  4042ee:	48 8b 45 d0          	mov    -0x30(%rbp),%rax
  4042f2:	48 05 b8 00 00 00    	add    $0xb8,%rax
  4042f8:	48 8b 10             	mov    (%rax),%rdx
  4042fb:	48 8b 45 d0          	mov    -0x30(%rbp),%rax
  4042ff:	48 05 b0 00 00 00    	add    $0xb0,%rax
  404305:	48 8b 00             	mov    (%rax),%rax
  404308:	48 31 d0             	xor    %rdx,%rax
  40430b:	48 89 ca             	mov    %rcx,%rdx
  40430e:	48 31 c2             	xor    %rax,%rdx
  404311:	48 8b 45 d0          	mov    -0x30(%rbp),%rax
  404315:	48 05 f0 00 00 00    	add    $0xf0,%rax
  40431b:	48 8b 00             	mov    (%rax),%rax
  40431e:	48 31 d0             	xor    %rdx,%rax
  404321:	48 89 45 f0          	mov    %rax,-0x10(%rbp)
  404325:	48 8b 45 d0          	mov    -0x30(%rbp),%rax
  404329:	48 83 c0 38          	add    $0x38,%rax
  40432d:	48 8b 10             	mov    (%rax),%rdx
  404330:	48 8b 45 d0          	mov    -0x30(%rbp),%rax
  404334:	48 83 c0 78          	add    $0x78,%rax
  404338:	48 8b 00             	mov    (%rax),%rax
  40433b:	48 31 c2             	xor    %rax,%rdx
  40433e:	48 8b 45 d0          	mov    -0x30(%rbp),%rax
  404342:	48 05 b8 00 00 00    	add    $0xb8,%rax
  404348:	48 8b 00             	mov    (%rax),%rax
  40434b:	48 31 c2             	xor    %rax,%rdx
  40434e:	48 8b 45 d0          	mov    -0x30(%rbp),%rax
  404352:	48 05 f8 00 00 00    	add    $0xf8,%rax
  404358:	48 8b 00             	mov    (%rax),%rax
  40435b:	48 31 d0             	xor    %rdx,%rax
  40435e:	48 89 45 f8          	mov    %rax,-0x8(%rbp)
  404362:	48 8b 45 d0          	mov    -0x30(%rbp),%rax
  404366:	48 83 c0 40          	add    $0x40,%rax
  40436a:	48 8b 10             	mov    (%rax),%rdx
  40436d:	48 8b 45 d0          	mov    -0x30(%rbp),%rax
  404371:	48 83 e8 80          	sub    $0xffffffffffffff80,%rax
  404375:	48 8b 00             	mov    (%rax),%rax
  404378:	48 31 c2             	xor    %rax,%rdx
  40437b:	48 8b 45 d0          	mov    -0x30(%rbp),%rax
  40437f:	48 05 c0 00 00 00    	add    $0xc0,%rax
  404385:	48 8b 00             	mov    (%rax),%rax
  404388:	48 31 d0             	xor    %rdx,%rax
  40438b:	48 33 45 e8          	xor    -0x18(%rbp),%rax
  40438f:	48 89 c2             	mov    %rax,%rdx
  404392:	48 8b 45 d8          	mov    -0x28(%rbp),%rax
  404396:	48 89 10             	mov    %rdx,(%rax)
  404399:	48 8b 45 d8          	mov    -0x28(%rbp),%rax
  40439d:	48 8d 50 08          	lea    0x8(%rax),%rdx
  4043a1:	48 8b 45 d0          	mov    -0x30(%rbp),%rax
  4043a5:	48 8b 08             	mov    (%rax),%rcx
  4043a8:	48 8b 45 d0          	mov    -0x30(%rbp),%rax
  4043ac:	48 83 c0 40          	add    $0x40,%rax
  4043b0:	48 8b 00             	mov    (%rax),%rax
  4043b3:	48 31 c1             	xor    %rax,%rcx
  4043b6:	48 8b 45 d0          	mov    -0x30(%rbp),%rax
  4043ba:	48 83 c0 48          	add    $0x48,%rax
  4043be:	48 8b 00             	mov    (%rax),%rax
  4043c1:	48 31 c1             	xor    %rax,%rcx
  4043c4:	48 8b 45 d0          	mov    -0x30(%rbp),%rax
  4043c8:	48 05 88 00 00 00    	add    $0x88,%rax
  4043ce:	48 8b 00             	mov    (%rax),%rax
  4043d1:	48 31 c1             	xor    %rax,%rcx
  4043d4:	48 8b 45 d0          	mov    -0x30(%rbp),%rax
  4043d8:	48 05 c8 00 00 00    	add    $0xc8,%rax
  4043de:	48 8b 00             	mov    (%rax),%rax
  4043e1:	48 31 c8             	xor    %rcx,%rax
  4043e4:	48 33 45 e8          	xor    -0x18(%rbp),%rax
  4043e8:	48 33 45 f0          	xor    -0x10(%rbp),%rax
  4043ec:	48 89 02             	mov    %rax,(%rdx)
  4043ef:	48 8b 45 d8          	mov    -0x28(%rbp),%rax
  4043f3:	48 8d 50 10          	lea    0x10(%rax),%rdx
  4043f7:	48 8b 45 d0          	mov    -0x30(%rbp),%rax
  4043fb:	48 83 c0 08          	add    $0x8,%rax
  4043ff:	48 8b 08             	mov    (%rax),%rcx
  404402:	48 8b 45 d0          	mov    -0x30(%rbp),%rax
  404406:	48 8b 00             	mov    (%rax),%rax
  404409:	48 31 c1             	xor    %rax,%rcx
  40440c:	48 8b 45 d0          	mov    -0x30(%rbp),%rax
  404410:	48 83 c0 48          	add    $0x48,%rax
  404414:	48 8b 00             	mov    (%rax),%rax
  404417:	48 31 c1             	xor    %rax,%rcx
  40441a:	48 8b 45 d0          	mov    -0x30(%rbp),%rax
  40441e:	48 83 c0 50          	add    $0x50,%rax
  404422:	48 8b 00             	mov    (%rax),%rax
  404425:	48 31 c1             	xor    %rax,%rcx
  404428:	48 8b 45 d0          	mov    -0x30(%rbp),%rax
  40442c:	48 05 90 00 00 00    	add    $0x90,%rax
  404432:	48 8b 00             	mov    (%rax),%rax
  404435:	48 31 c1             	xor    %rax,%rcx
  404438:	48 8b 45 d0          	mov    -0x30(%rbp),%rax
  40443c:	48 83 e8 80          	sub    $0xffffffffffffff80,%rax
  404440:	48 8b 00             	mov    (%rax),%rax
  404443:	48 31 c1             	xor    %rax,%rcx
  404446:	48 8b 45 d0          	mov    -0x30(%rbp),%rax
  40444a:	48 05 d0 00 00 00    	add    $0xd0,%rax
  404450:	48 8b 00             	mov    (%rax),%rax
  404453:	48 31 c8             	xor    %rcx,%rax
  404456:	48 33 45 f0          	xor    -0x10(%rbp),%rax
  40445a:	48 33 45 f8          	xor    -0x8(%rbp),%rax
  40445e:	48 89 02             	mov    %rax,(%rdx)
  404461:	48 8b 45 d8          	mov    -0x28(%rbp),%rax
  404465:	48 8d 50 18          	lea    0x18(%rax),%rdx
  404469:	48 8b 45 d0          	mov    -0x30(%rbp),%rax
  40446d:	48 83 c0 10          	add    $0x10,%rax
  404471:	48 8b 08             	mov    (%rax),%rcx
  404474:	48 8b 45 d0          	mov    -0x30(%rbp),%rax
  404478:	48 83 c0 08          	add    $0x8,%rax
  40447c:	48 8b 00             	mov    (%rax),%rax
  40447f:	48 31 c1             	xor    %rax,%rcx
  404482:	48 8b 45 d0          	mov    -0x30(%rbp),%rax
  404486:	48 8b 00             	mov    (%rax),%rax
  404489:	48 31 c1             	xor    %rax,%rcx
  40448c:	48 8b 45 d0          	mov    -0x30(%rbp),%rax
  404490:	48 83 c0 40          	add    $0x40,%rax
  404494:	48 8b 00             	mov    (%rax),%rax
  404497:	48 31 c1             	xor    %rax,%rcx
  40449a:	48 8b 45 d0          	mov    -0x30(%rbp),%rax
  40449e:	48 83 c0 50          	add    $0x50,%rax
  4044a2:	48 8b 00             	mov    (%rax),%rax
  4044a5:	48 31 c1             	xor    %rax,%rcx
  4044a8:	48 8b 45 d0          	mov    -0x30(%rbp),%rax
  4044ac:	48 83 c0 58          	add    $0x58,%rax
  4044b0:	48 8b 00             	mov    (%rax),%rax
  4044b3:	48 31 c1             	xor    %rax,%rcx
  4044b6:	48 8b 45 d0          	mov    -0x30(%rbp),%rax
  4044ba:	48 05 98 00 00 00    	add    $0x98,%rax
  4044c0:	48 8b 00             	mov    (%rax),%rax
  4044c3:	48 31 c1             	xor    %rax,%rcx
  4044c6:	48 8b 45 d0          	mov    -0x30(%rbp),%rax
  4044ca:	48 05 88 00 00 00    	add    $0x88,%rax
  4044d0:	48 8b 00             	mov    (%rax),%rax
  4044d3:	48 31 c1             	xor    %rax,%rcx
  4044d6:	48 8b 45 d0          	mov    -0x30(%rbp),%rax
  4044da:	48 83 e8 80          	sub    $0xffffffffffffff80,%rax
  4044de:	48 8b 00             	mov    (%rax),%rax
  4044e1:	48 31 c1             	xor    %rax,%rcx
  4044e4:	48 8b 45 d0          	mov    -0x30(%rbp),%rax
  4044e8:	48 05 d8 00 00 00    	add    $0xd8,%rax
  4044ee:	48 8b 00             	mov    (%rax),%rax
  4044f1:	48 31 c1             	xor    %rax,%rcx
  4044f4:	48 8b 45 d0          	mov    -0x30(%rbp),%rax
  4044f8:	48 05 c0 00 00 00    	add    $0xc0,%rax
  4044fe:	48 8b 00             	mov    (%rax),%rax
  404501:	48 31 c8             	xor    %rcx,%rax
  404504:	48 33 45 e8          	xor    -0x18(%rbp),%rax
  404508:	48 33 45 f8          	xor    -0x8(%rbp),%rax
  40450c:	48 89 02             	mov    %rax,(%rdx)
  40450f:	48 8b 45 d8          	mov    -0x28(%rbp),%rax
  404513:	48 8d 50 20          	lea    0x20(%rax),%rdx
  404517:	48 8b 45 d0          	mov    -0x30(%rbp),%rax
  40451b:	48 83 c0 18          	add    $0x18,%rax
  40451f:	48 8b 08             	mov    (%rax),%rcx
  404522:	48 8b 45 d0          	mov    -0x30(%rbp),%rax
  404526:	48 83 c0 10          	add    $0x10,%rax
  40452a:	48 8b 00             	mov    (%rax),%rax
  40452d:	48 31 c1             	xor    %rax,%rcx
  404530:	48 8b 45 d0          	mov    -0x30(%rbp),%rax
  404534:	48 83 c0 08          	add    $0x8,%rax
  404538:	48 8b 00             	mov    (%rax),%rax
  40453b:	48 31 c1             	xor    %rax,%rcx
  40453e:	48 8b 45 d0          	mov    -0x30(%rbp),%rax
  404542:	48 83 c0 48          	add    $0x48,%rax
  404546:	48 8b 00             	mov    (%rax),%rax
  404549:	48 31 c1             	xor    %rax,%rcx
  40454c:	48 8b 45 d0          	mov    -0x30(%rbp),%rax
  404550:	48 83 c0 58          	add    $0x58,%rax
  404554:	48 8b 00             	mov    (%rax),%rax
  404557:	48 31 c1             	xor    %rax,%rcx
  40455a:	48 8b 45 d0          	mov    -0x30(%rbp),%rax
  40455e:	48 83 c0 60          	add    $0x60,%rax
  404562:	48 8b 00             	mov    (%rax),%rax
  404565:	48 31 c1             	xor    %rax,%rcx
  404568:	48 8b 45 d0          	mov    -0x30(%rbp),%rax
  40456c:	48 05 a0 00 00 00    	add    $0xa0,%rax
  404572:	48 8b 00             	mov    (%rax),%rax
  404575:	48 31 c1             	xor    %rax,%rcx
  404578:	48 8b 45 d0          	mov    -0x30(%rbp),%rax
  40457c:	48 05 90 00 00 00    	add    $0x90,%rax
  404582:	48 8b 00             	mov    (%rax),%rax
  404585:	48 31 c1             	xor    %rax,%rcx
  404588:	48 8b 45 d0          	mov    -0x30(%rbp),%rax
  40458c:	48 05 88 00 00 00    	add    $0x88,%rax
  404592:	48 8b 00             	mov    (%rax),%rax
  404595:	48 31 c1             	xor    %rax,%rcx
  404598:	48 8b 45 d0          	mov    -0x30(%rbp),%rax
  40459c:	48 05 e0 00 00 00    	add    $0xe0,%rax
  4045a2:	48 8b 00             	mov    (%rax),%rax
  4045a5:	48 31 c1             	xor    %rax,%rcx
  4045a8:	48 8b 45 d0          	mov    -0x30(%rbp),%rax
  4045ac:	48 05 c8 00 00 00    	add    $0xc8,%rax
  4045b2:	48 8b 00             	mov    (%rax),%rax
  4045b5:	48 31 c8             	xor    %rcx,%rax
  4045b8:	48 33 45 e8          	xor    -0x18(%rbp),%rax
  4045bc:	48 33 45 f0          	xor    -0x10(%rbp),%rax
  4045c0:	48 89 02             	mov    %rax,(%rdx)
  4045c3:	48 8b 45 d8          	mov    -0x28(%rbp),%rax
  4045c7:	48 8d 50 28          	lea    0x28(%rax),%rdx
  4045cb:	48 8b 45 d0          	mov    -0x30(%rbp),%rax
  4045cf:	48 83 c0 20          	add    $0x20,%rax
  4045d3:	48 8b 08             	mov    (%rax),%rcx
  4045d6:	48 8b 45 d0          	mov    -0x30(%rbp),%rax
  4045da:	48 83 c0 18          	add    $0x18,%rax
  4045de:	48 8b 00             	mov    (%rax),%rax
  4045e1:	48 31 c1             	xor    %rax,%rcx
  4045e4:	48 8b 45 d0          	mov    -0x30(%rbp),%rax
  4045e8:	48 83 c0 10          	add    $0x10,%rax
  4045ec:	48 8b 00             	mov    (%rax),%rax
  4045ef:	48 31 c1             	xor    %rax,%rcx
  4045f2:	48 8b 45 d0          	mov    -0x30(%rbp),%rax
  4045f6:	48 83 c0 50          	add    $0x50,%rax
  4045fa:	48 8b 00             	mov    (%rax),%rax
  4045fd:	48 31 c1             	xor    %rax,%rcx
  404600:	48 8b 45 d0          	mov    -0x30(%rbp),%rax
  404604:	48 83 c0 60          	add    $0x60,%rax
  404608:	48 8b 00             	mov    (%rax),%rax
  40460b:	48 31 c1             	xor    %rax,%rcx
  40460e:	48 8b 45 d0          	mov    -0x30(%rbp),%rax
  404612:	48 83 c0 68          	add    $0x68,%rax
  404616:	48 8b 00             	mov    (%rax),%rax
  404619:	48 31 c1             	xor    %rax,%rcx
  40461c:	48 8b 45 d0          	mov    -0x30(%rbp),%rax
  404620:	48 05 a8 00 00 00    	add    $0xa8,%rax
  404626:	48 8b 00             	mov    (%rax),%rax
  404629:	48 31 c1             	xor    %rax,%rcx
  40462c:	48 8b 45 d0          	mov    -0x30(%rbp),%rax
  404630:	48 05 98 00 00 00    	add    $0x98,%rax
  404636:	48 8b 00             	mov    (%rax),%rax
  404639:	48 31 c1             	xor    %rax,%rcx
  40463c:	48 8b 45 d0          	mov    -0x30(%rbp),%rax
  404640:	48 05 90 00 00 00    	add    $0x90,%rax
  404646:	48 8b 00             	mov    (%rax),%rax
  404649:	48 31 c1             	xor    %rax,%rcx
  40464c:	48 8b 45 d0          	mov    -0x30(%rbp),%rax
  404650:	48 05 e8 00 00 00    	add    $0xe8,%rax
  404656:	48 8b 00             	mov    (%rax),%rax
  404659:	48 31 c1             	xor    %rax,%rcx
  40465c:	48 8b 45 d0          	mov    -0x30(%rbp),%rax
  404660:	48 05 d0 00 00 00    	add    $0xd0,%rax
  404666:	48 8b 00             	mov    (%rax),%rax
  404669:	48 31 c8             	xor    %rcx,%rax
  40466c:	48 33 45 f0          	xor    -0x10(%rbp),%rax
  404670:	48 33 45 f8          	xor    -0x8(%rbp),%rax
  404674:	48 89 02             	mov    %rax,(%rdx)
  404677:	48 8b 45 d8          	mov    -0x28(%rbp),%rax
  40467b:	48 8d 50 30          	lea    0x30(%rax),%rdx
  40467f:	48 8b 45 d0          	mov    -0x30(%rbp),%rax
  404683:	48 83 c0 28          	add    $0x28,%rax
  404687:	48 8b 08             	mov    (%rax),%rcx
  40468a:	48 8b 45 d0          	mov    -0x30(%rbp),%rax
  40468e:	48 83 c0 20          	add    $0x20,%rax
  404692:	48 8b 00             	mov    (%rax),%rax
  404695:	48 31 c1             	xor    %rax,%rcx
  404698:	48 8b 45 d0          	mov    -0x30(%rbp),%rax
  40469c:	48 83 c0 18          	add    $0x18,%rax
  4046a0:	48 8b 00             	mov    (%rax),%rax
  4046a3:	48 31 c1             	xor    %rax,%rcx
  4046a6:	48 8b 45 d0          	mov    -0x30(%rbp),%rax
  4046aa:	48 83 c0 58          	add    $0x58,%rax
  4046ae:	48 8b 00             	mov    (%rax),%rax
  4046b1:	48 31 c1             	xor    %rax,%rcx
  4046b4:	48 8b 45 d0          	mov    -0x30(%rbp),%rax
  4046b8:	48 83 c0 68          	add    $0x68,%rax
  4046bc:	48 8b 00             	mov    (%rax),%rax
  4046bf:	48 31 c1             	xor    %rax,%rcx
  4046c2:	48 8b 45 d0          	mov    -0x30(%rbp),%rax
  4046c6:	48 83 c0 70          	add    $0x70,%rax
  4046ca:	48 8b 00             	mov    (%rax),%rax
  4046cd:	48 31 c1             	xor    %rax,%rcx
  4046d0:	48 8b 45 d0          	mov    -0x30(%rbp),%rax
  4046d4:	48 05 b0 00 00 00    	add    $0xb0,%rax
  4046da:	48 8b 00             	mov    (%rax),%rax
  4046dd:	48 31 c1             	xor    %rax,%rcx
  4046e0:	48 8b 45 d0          	mov    -0x30(%rbp),%rax
  4046e4:	48 05 a0 00 00 00    	add    $0xa0,%rax
  4046ea:	48 8b 00             	mov    (%rax),%rax
  4046ed:	48 31 c1             	xor    %rax,%rcx
  4046f0:	48 8b 45 d0          	mov    -0x30(%rbp),%rax
  4046f4:	48 05 98 00 00 00    	add    $0x98,%rax
  4046fa:	48 8b 00             	mov    (%rax),%rax
  4046fd:	48 31 c1             	xor    %rax,%rcx
  404700:	48 8b 45 d0          	mov    -0x30(%rbp),%rax
  404704:	48 05 f0 00 00 00    	add    $0xf0,%rax
  40470a:	48 8b 00             	mov    (%rax),%rax
  40470d:	48 31 c1             	xor    %rax,%rcx
  404710:	48 8b 45 d0          	mov    -0x30(%rbp),%rax
  404714:	48 05 d8 00 00 00    	add    $0xd8,%rax
  40471a:	48 8b 00             	mov    (%rax),%rax
  40471d:	48 31 c8             	xor    %rcx,%rax
  404720:	48 33 45 f8          	xor    -0x8(%rbp),%rax
  404724:	48 89 02             	mov    %rax,(%rdx)
  404727:	48 8b 45 d8          	mov    -0x28(%rbp),%rax
  40472b:	48 83 c0 38          	add    $0x38,%rax
  40472f:	48 8b 55 d0          	mov    -0x30(%rbp),%rdx
  404733:	48 83 c2 30          	add    $0x30,%rdx
  404737:	48 8b 0a             	mov    (%rdx),%rcx
  40473a:	48 8b 55 d0          	mov    -0x30(%rbp),%rdx
  40473e:	48 83 c2 28          	add    $0x28,%rdx
  404742:	48 8b 12             	mov    (%rdx),%rdx
  404745:	48 31 d1             	xor    %rdx,%rcx
  404748:	48 8b 55 d0          	mov    -0x30(%rbp),%rdx
  40474c:	48 83 c2 20          	add    $0x20,%rdx
  404750:	48 8b 12             	mov    (%rdx),%rdx
  404753:	48 31 d1             	xor    %rdx,%rcx
  404756:	48 8b 55 d0          	mov    -0x30(%rbp),%rdx
  40475a:	48 83 c2 60          	add    $0x60,%rdx
  40475e:	48 8b 12             	mov    (%rdx),%rdx
  404761:	48 31 d1             	xor    %rdx,%rcx
  404764:	48 8b 55 d0          	mov    -0x30(%rbp),%rdx
  404768:	48 83 c2 70          	add    $0x70,%rdx
  40476c:	48 8b 12             	mov    (%rdx),%rdx
  40476f:	48 31 d1             	xor    %rdx,%rcx
  404772:	48 8b 55 d0          	mov    -0x30(%rbp),%rdx
  404776:	48 83 c2 78          	add    $0x78,%rdx
  40477a:	48 8b 12             	mov    (%rdx),%rdx
  40477d:	48 31 d1             	xor    %rdx,%rcx
  404780:	48 8b 55 d0          	mov    -0x30(%rbp),%rdx
  404784:	48 81 c2 b8 00 00 00 	add    $0xb8,%rdx
  40478b:	48 8b 12             	mov    (%rdx),%rdx
  40478e:	48 31 d1             	xor    %rdx,%rcx
  404791:	48 8b 55 d0          	mov    -0x30(%rbp),%rdx
  404795:	48 81 c2 a8 00 00 00 	add    $0xa8,%rdx
  40479c:	48 8b 12             	mov    (%rdx),%rdx
  40479f:	48 31 d1             	xor    %rdx,%rcx
  4047a2:	48 8b 55 d0          	mov    -0x30(%rbp),%rdx
  4047a6:	48 81 c2 a0 00 00 00 	add    $0xa0,%rdx
  4047ad:	48 8b 12             	mov    (%rdx),%rdx
  4047b0:	48 31 d1             	xor    %rdx,%rcx
  4047b3:	48 8b 55 d0          	mov    -0x30(%rbp),%rdx
  4047b7:	48 81 c2 f8 00 00 00 	add    $0xf8,%rdx
  4047be:	48 8b 12             	mov    (%rdx),%rdx
  4047c1:	48 31 d1             	xor    %rdx,%rcx
  4047c4:	48 8b 55 d0          	mov    -0x30(%rbp),%rdx
  4047c8:	48 81 c2 e0 00 00 00 	add    $0xe0,%rdx
  4047cf:	48 8b 12             	mov    (%rdx),%rdx
  4047d2:	48 31 ca             	xor    %rcx,%rdx
  4047d5:	48 89 10             	mov    %rdx,(%rax)
  4047d8:	48 8b 45 d0          	mov    -0x30(%rbp),%rax
  4047dc:	48 83 c0 28          	add    $0x28,%rax
  4047e0:	48 8b 00             	mov    (%rax),%rax
  4047e3:	48 8b 55 d0          	mov    -0x30(%rbp),%rdx
  4047e7:	48 83 c2 78          	add    $0x78,%rdx
  4047eb:	48 8b 0a             	mov    (%rdx),%rcx
  4047ee:	48 8b 55 d0          	mov    -0x30(%rbp),%rdx
  4047f2:	48 83 c2 70          	add    $0x70,%rdx
  4047f6:	48 8b 12             	mov    (%rdx),%rdx
  4047f9:	48 31 d1             	xor    %rdx,%rcx
  4047fc:	48 8b 55 d0          	mov    -0x30(%rbp),%rdx
  404800:	48 83 c2 68          	add    $0x68,%rdx
  404804:	48 8b 12             	mov    (%rdx),%rdx
  404807:	48 31 ca             	xor    %rcx,%rdx
  40480a:	48 31 d0             	xor    %rdx,%rax
  40480d:	48 89 c1             	mov    %rax,%rcx
  404810:	48 8b 45 d0          	mov    -0x30(%rbp),%rax
  404814:	48 05 b8 00 00 00    	add    $0xb8,%rax
  40481a:	48 8b 10             	mov    (%rax),%rdx
  40481d:	48 8b 45 d0          	mov    -0x30(%rbp),%rax
  404821:	48 05 a8 00 00 00    	add    $0xa8,%rax
  404827:	48 8b 00             	mov    (%rax),%rax
  40482a:	48 31 d0             	xor    %rdx,%rax
  40482d:	48 31 c1             	xor    %rax,%rcx
  404830:	48 8b 45 d0          	mov    -0x30(%rbp),%rax
  404834:	48 05 f0 00 00 00    	add    $0xf0,%rax
  40483a:	48 8b 10             	mov    (%rax),%rdx
  40483d:	48 8b 45 d0          	mov    -0x30(%rbp),%rax
  404841:	48 05 e8 00 00 00    	add    $0xe8,%rax
  404847:	48 8b 00             	mov    (%rax),%rax
  40484a:	48 31 d0             	xor    %rdx,%rax
  40484d:	48 31 c8             	xor    %rcx,%rax
  404850:	48 89 45 e8          	mov    %rax,-0x18(%rbp)
  404854:	48 8b 45 d0          	mov    -0x30(%rbp),%rax
  404858:	48 83 c0 30          	add    $0x30,%rax
  40485c:	48 8b 00             	mov    (%rax),%rax
  40485f:	48 8b 55 d0          	mov    -0x30(%rbp),%rdx
  404863:	48 83 c2 78          	add    $0x78,%rdx
  404867:	48 8b 0a             	mov    (%rdx),%rcx
  40486a:	48 8b 55 d0          	mov    -0x30(%rbp),%rdx
  40486e:	48 83 c2 70          	add    $0x70,%rdx
  404872:	48 8b 12             	mov    (%rdx),%rdx
  404875:	48 31 ca             	xor    %rcx,%rdx
  404878:	48 31 c2             	xor    %rax,%rdx
  40487b:	48 8b 45 d0          	mov    -0x30(%rbp),%rax
  40487f:	48 05 b0 00 00 00    	add    $0xb0,%rax
  404885:	48 8b 00             	mov    (%rax),%rax
  404888:	48 31 c2             	xor    %rax,%rdx
  40488b:	48 89 d1             	mov    %rdx,%rcx
  40488e:	48 8b 45 d0          	mov    -0x30(%rbp),%rax
  404892:	48 05 f8 00 00 00    	add    $0xf8,%rax
  404898:	48 8b 10             	mov    (%rax),%rdx
  40489b:	48 8b 45 d0          	mov    -0x30(%rbp),%rax
  40489f:	48 05 f0 00 00 00    	add    $0xf0,%rax
  4048a5:	48 8b 00             	mov    (%rax),%rax
  4048a8:	48 31 d0             	xor    %rdx,%rax
  4048ab:	48 31 c8             	xor    %rcx,%rax
  4048ae:	48 89 45 f0          	mov    %rax,-0x10(%rbp)
  4048b2:	48 8b 45 d0          	mov    -0x30(%rbp),%rax
  4048b6:	48 83 c0 38          	add    $0x38,%rax
  4048ba:	48 8b 10             	mov    (%rax),%rdx
  4048bd:	48 8b 45 d0          	mov    -0x30(%rbp),%rax
  4048c1:	48 83 c0 78          	add    $0x78,%rax
  4048c5:	48 8b 00             	mov    (%rax),%rax
  4048c8:	48 31 c2             	xor    %rax,%rdx
  4048cb:	48 8b 45 d0          	mov    -0x30(%rbp),%rax
  4048cf:	48 05 b8 00 00 00    	add    $0xb8,%rax
  4048d5:	48 8b 00             	mov    (%rax),%rax
  4048d8:	48 31 c2             	xor    %rax,%rdx
  4048db:	48 8b 45 d0          	mov    -0x30(%rbp),%rax
  4048df:	48 05 f8 00 00 00    	add    $0xf8,%rax
  4048e5:	48 8b 00             	mov    (%rax),%rax
  4048e8:	48 31 d0             	xor    %rdx,%rax
  4048eb:	48 89 45 f8          	mov    %rax,-0x8(%rbp)
  4048ef:	48 8b 45 d8          	mov    -0x28(%rbp),%rax
  4048f3:	48 8d 50 40          	lea    0x40(%rax),%rdx
  4048f7:	48 8b 45 d0          	mov    -0x30(%rbp),%rax
  4048fb:	48 8b 08             	mov    (%rax),%rcx
  4048fe:	48 8b 45 d0          	mov    -0x30(%rbp),%rax
  404902:	48 83 e8 80          	sub    $0xffffffffffffff80,%rax
  404906:	48 8b 00             	mov    (%rax),%rax
  404909:	48 31 c1             	xor    %rax,%rcx
  40490c:	48 8b 45 d0          	mov    -0x30(%rbp),%rax
  404910:	48 05 c0 00 00 00    	add    $0xc0,%rax
  404916:	48 8b 00             	mov    (%rax),%rax
  404919:	48 31 c8             	xor    %rcx,%rax
  40491c:	48 33 45 e8          	xor    -0x18(%rbp),%rax
  404920:	48 89 02             	mov    %rax,(%rdx)
  404923:	48 8b 45 d8          	mov    -0x28(%rbp),%rax
  404927:	48 8d 50 48          	lea    0x48(%rax),%rdx
  40492b:	48 8b 45 d0          	mov    -0x30(%rbp),%rax
  40492f:	48 83 c0 08          	add    $0x8,%rax
  404933:	48 8b 08             	mov    (%rax),%rcx
  404936:	48 8b 45 d0          	mov    -0x30(%rbp),%rax
  40493a:	48 83 c0 40          	add    $0x40,%rax
  40493e:	48 8b 00             	mov    (%rax),%rax
  404941:	48 31 c1             	xor    %rax,%rcx
  404944:	48 8b 45 d0          	mov    -0x30(%rbp),%rax
  404948:	48 05 88 00 00 00    	add    $0x88,%rax
  40494e:	48 8b 00             	mov    (%rax),%rax
  404951:	48 31 c1             	xor    %rax,%rcx
  404954:	48 8b 45 d0          	mov    -0x30(%rbp),%rax
  404958:	48 83 e8 80          	sub    $0xffffffffffffff80,%rax
  40495c:	48 8b 00             	mov    (%rax),%rax
  40495f:	48 31 c1             	xor    %rax,%rcx
  404962:	48 8b 45 d0          	mov    -0x30(%rbp),%rax
  404966:	48 05 c8 00 00 00    	add    $0xc8,%rax
  40496c:	48 8b 00             	mov    (%rax),%rax
  40496f:	48 31 c8             	xor    %rcx,%rax
  404972:	48 33 45 e8          	xor    -0x18(%rbp),%rax
  404976:	48 33 45 f0          	xor    -0x10(%rbp),%rax
  40497a:	48 89 02             	mov    %rax,(%rdx)
  40497d:	48 8b 45 d8          	mov    -0x28(%rbp),%rax
  404981:	48 8d 50 50          	lea    0x50(%rax),%rdx
  404985:	48 8b 45 d0          	mov    -0x30(%rbp),%rax
  404989:	48 83 c0 10          	add    $0x10,%rax
  40498d:	48 8b 08             	mov    (%rax),%rcx
  404990:	48 8b 45 d0          	mov    -0x30(%rbp),%rax
  404994:	48 83 c0 48          	add    $0x48,%rax
  404998:	48 8b 00             	mov    (%rax),%rax
  40499b:	48 31 c1             	xor    %rax,%rcx
  40499e:	48 8b 45 d0          	mov    -0x30(%rbp),%rax
  4049a2:	48 83 c0 40          	add    $0x40,%rax
  4049a6:	48 8b 00             	mov    (%rax),%rax
  4049a9:	48 31 c1             	xor    %rax,%rcx
  4049ac:	48 8b 45 d0          	mov    -0x30(%rbp),%rax
  4049b0:	48 05 90 00 00 00    	add    $0x90,%rax
  4049b6:	48 8b 00             	mov    (%rax),%rax
  4049b9:	48 31 c1             	xor    %rax,%rcx
  4049bc:	48 8b 45 d0          	mov    -0x30(%rbp),%rax
  4049c0:	48 05 88 00 00 00    	add    $0x88,%rax
  4049c6:	48 8b 00             	mov    (%rax),%rax
  4049c9:	48 31 c1             	xor    %rax,%rcx
  4049cc:	48 8b 45 d0          	mov    -0x30(%rbp),%rax
  4049d0:	48 05 d0 00 00 00    	add    $0xd0,%rax
  4049d6:	48 8b 00             	mov    (%rax),%rax
  4049d9:	48 31 c1             	xor    %rax,%rcx
  4049dc:	48 8b 45 d0          	mov    -0x30(%rbp),%rax
  4049e0:	48 05 c0 00 00 00    	add    $0xc0,%rax
  4049e6:	48 8b 00             	mov    (%rax),%rax
  4049e9:	48 31 c8             	xor    %rcx,%rax
  4049ec:	48 33 45 f0          	xor    -0x10(%rbp),%rax
  4049f0:	48 33 45 f8          	xor    -0x8(%rbp),%rax
  4049f4:	48 89 02             	mov    %rax,(%rdx)
  4049f7:	48 8b 45 d8          	mov    -0x28(%rbp),%rax
  4049fb:	48 8d 50 58          	lea    0x58(%rax),%rdx
  4049ff:	48 8b 45 d0          	mov    -0x30(%rbp),%rax
  404a03:	48 83 c0 18          	add    $0x18,%rax
  404a07:	48 8b 08             	mov    (%rax),%rcx
  404a0a:	48 8b 45 d0          	mov    -0x30(%rbp),%rax
  404a0e:	48 8b 00             	mov    (%rax),%rax
  404a11:	48 31 c1             	xor    %rax,%rcx
  404a14:	48 8b 45 d0          	mov    -0x30(%rbp),%rax
  404a18:	48 83 c0 50          	add    $0x50,%rax
  404a1c:	48 8b 00             	mov    (%rax),%rax
  404a1f:	48 31 c1             	xor    %rax,%rcx
  404a22:	48 8b 45 d0          	mov    -0x30(%rbp),%rax
  404a26:	48 83 c0 48          	add    $0x48,%rax
  404a2a:	48 8b 00             	mov    (%rax),%rax
  404a2d:	48 31 c1             	xor    %rax,%rcx
  404a30:	48 8b 45 d0          	mov    -0x30(%rbp),%rax
  404a34:	48 83 c0 40          	add    $0x40,%rax
  404a38:	48 8b 00             	mov    (%rax),%rax
  404a3b:	48 31 c1             	xor    %rax,%rcx
  404a3e:	48 8b 45 d0          	mov    -0x30(%rbp),%rax
  404a42:	48 05 98 00 00 00    	add    $0x98,%rax
  404a48:	48 8b 00             	mov    (%rax),%rax
  404a4b:	48 31 c1             	xor    %rax,%rcx
  404a4e:	48 8b 45 d0          	mov    -0x30(%rbp),%rax
  404a52:	48 05 90 00 00 00    	add    $0x90,%rax
  404a58:	48 8b 00             	mov    (%rax),%rax
  404a5b:	48 31 c1             	xor    %rax,%rcx
  404a5e:	48 8b 45 d0          	mov    -0x30(%rbp),%rax
  404a62:	48 83 e8 80          	sub    $0xffffffffffffff80,%rax
  404a66:	48 8b 00             	mov    (%rax),%rax
  404a69:	48 31 c1             	xor    %rax,%rcx
  404a6c:	48 8b 45 d0          	mov    -0x30(%rbp),%rax
  404a70:	48 05 d8 00 00 00    	add    $0xd8,%rax
  404a76:	48 8b 00             	mov    (%rax),%rax
  404a79:	48 31 c1             	xor    %rax,%rcx
  404a7c:	48 8b 45 d0          	mov    -0x30(%rbp),%rax
  404a80:	48 05 c8 00 00 00    	add    $0xc8,%rax
  404a86:	48 8b 00             	mov    (%rax),%rax
  404a89:	48 31 c1             	xor    %rax,%rcx
  404a8c:	48 8b 45 d0          	mov    -0x30(%rbp),%rax
  404a90:	48 05 c0 00 00 00    	add    $0xc0,%rax
  404a96:	48 8b 00             	mov    (%rax),%rax
  404a99:	48 31 c8             	xor    %rcx,%rax
  404a9c:	48 33 45 e8          	xor    -0x18(%rbp),%rax
  404aa0:	48 33 45 f8          	xor    -0x8(%rbp),%rax
  404aa4:	48 89 02             	mov    %rax,(%rdx)
  404aa7:	48 8b 45 d8          	mov    -0x28(%rbp),%rax
  404aab:	48 8d 50 60          	lea    0x60(%rax),%rdx
  404aaf:	48 8b 45 d0          	mov    -0x30(%rbp),%rax
  404ab3:	48 83 c0 20          	add    $0x20,%rax
  404ab7:	48 8b 08             	mov    (%rax),%rcx
  404aba:	48 8b 45 d0          	mov    -0x30(%rbp),%rax
  404abe:	48 83 c0 08          	add    $0x8,%rax
  404ac2:	48 8b 00             	mov    (%rax),%rax
  404ac5:	48 31 c1             	xor    %rax,%rcx
  404ac8:	48 8b 45 d0          	mov    -0x30(%rbp),%rax
  404acc:	48 83 c0 58          	add    $0x58,%rax
  404ad0:	48 8b 00             	mov    (%rax),%rax
  404ad3:	48 31 c1             	xor    %rax,%rcx
  404ad6:	48 8b 45 d0          	mov    -0x30(%rbp),%rax
  404ada:	48 83 c0 50          	add    $0x50,%rax
  404ade:	48 8b 00             	mov    (%rax),%rax
  404ae1:	48 31 c1             	xor    %rax,%rcx
  404ae4:	48 8b 45 d0          	mov    -0x30(%rbp),%rax
  404ae8:	48 83 c0 48          	add    $0x48,%rax
  404aec:	48 8b 00             	mov    (%rax),%rax
  404aef:	48 31 c1             	xor    %rax,%rcx
  404af2:	48 8b 45 d0          	mov    -0x30(%rbp),%rax
  404af6:	48 05 a0 00 00 00    	add    $0xa0,%rax
  404afc:	48 8b 00             	mov    (%rax),%rax
  404aff:	48 31 c1             	xor    %rax,%rcx
  404b02:	48 8b 45 d0          	mov    -0x30(%rbp),%rax
  404b06:	48 05 98 00 00 00    	add    $0x98,%rax
  404b0c:	48 8b 00             	mov    (%rax),%rax
  404b0f:	48 31 c1             	xor    %rax,%rcx
  404b12:	48 8b 45 d0          	mov    -0x30(%rbp),%rax
  404b16:	48 05 88 00 00 00    	add    $0x88,%rax
  404b1c:	48 8b 00             	mov    (%rax),%rax
  404b1f:	48 31 c1             	xor    %rax,%rcx
  404b22:	48 8b 45 d0          	mov    -0x30(%rbp),%rax
  404b26:	48 05 e0 00 00 00    	add    $0xe0,%rax
  404b2c:	48 8b 00             	mov    (%rax),%rax
  404b2f:	48 31 c1             	xor    %rax,%rcx
  404b32:	48 8b 45 d0          	mov    -0x30(%rbp),%rax
  404b36:	48 05 d0 00 00 00    	add    $0xd0,%rax
  404b3c:	48 8b 00             	mov    (%rax),%rax
  404b3f:	48 31 c1             	xor    %rax,%rcx
  404b42:	48 8b 45 d0          	mov    -0x30(%rbp),%rax
  404b46:	48 05 c8 00 00 00    	add    $0xc8,%rax
  404b4c:	48 8b 00             	mov    (%rax),%rax
  404b4f:	48 31 c8             	xor    %rcx,%rax
  404b52:	48 33 45 e8          	xor    -0x18(%rbp),%rax
  404b56:	48 33 45 f0          	xor    -0x10(%rbp),%rax
  404b5a:	48 89 02             	mov    %rax,(%rdx)
  404b5d:	48 8b 45 d8          	mov    -0x28(%rbp),%rax
  404b61:	48 8d 50 68          	lea    0x68(%rax),%rdx
  404b65:	48 8b 45 d0          	mov    -0x30(%rbp),%rax
  404b69:	48 83 c0 28          	add    $0x28,%rax
  404b6d:	48 8b 08             	mov    (%rax),%rcx
  404b70:	48 8b 45 d0          	mov    -0x30(%rbp),%rax
  404b74:	48 83 c0 10          	add    $0x10,%rax
  404b78:	48 8b 00             	mov    (%rax),%rax
  404b7b:	48 31 c1             	xor    %rax,%rcx
  404b7e:	48 8b 45 d0          	mov    -0x30(%rbp),%rax
  404b82:	48 83 c0 60          	add    $0x60,%rax
  404b86:	48 8b 00             	mov    (%rax),%rax
  404b89:	48 31 c1             	xor    %rax,%rcx
  404b8c:	48 8b 45 d0          	mov    -0x30(%rbp),%rax
  404b90:	48 83 c0 58          	add    $0x58,%rax
  404b94:	48 8b 00             	mov    (%rax),%rax
  404b97:	48 31 c1             	xor    %rax,%rcx
  404b9a:	48 8b 45 d0          	mov    -0x30(%rbp),%rax
  404b9e:	48 83 c0 50          	add    $0x50,%rax
  404ba2:	48 8b 00             	mov    (%rax),%rax
  404ba5:	48 31 c1             	xor    %rax,%rcx
  404ba8:	48 8b 45 d0          	mov    -0x30(%rbp),%rax
  404bac:	48 05 a8 00 00 00    	add    $0xa8,%rax
  404bb2:	48 8b 00             	mov    (%rax),%rax
  404bb5:	48 31 c1             	xor    %rax,%rcx
  404bb8:	48 8b 45 d0          	mov    -0x30(%rbp),%rax
  404bbc:	48 05 a0 00 00 00    	add    $0xa0,%rax
  404bc2:	48 8b 00             	mov    (%rax),%rax
  404bc5:	48 31 c1             	xor    %rax,%rcx
  404bc8:	48 8b 45 d0          	mov    -0x30(%rbp),%rax
  404bcc:	48 05 90 00 00 00    	add    $0x90,%rax
  404bd2:	48 8b 00             	mov    (%rax),%rax
  404bd5:	48 31 c1             	xor    %rax,%rcx
  404bd8:	48 8b 45 d0          	mov    -0x30(%rbp),%rax
  404bdc:	48 05 e8 00 00 00    	add    $0xe8,%rax
  404be2:	48 8b 00             	mov    (%rax),%rax
  404be5:	48 31 c1             	xor    %rax,%rcx
  404be8:	48 8b 45 d0          	mov    -0x30(%rbp),%rax
  404bec:	48 05 d8 00 00 00    	add    $0xd8,%rax
  404bf2:	48 8b 00             	mov    (%rax),%rax
  404bf5:	48 31 c1             	xor    %rax,%rcx
  404bf8:	48 8b 45 d0          	mov    -0x30(%rbp),%rax
  404bfc:	48 05 d0 00 00 00    	add    $0xd0,%rax
  404c02:	48 8b 00             	mov    (%rax),%rax
  404c05:	48 31 c8             	xor    %rcx,%rax
  404c08:	48 33 45 f0          	xor    -0x10(%rbp),%rax
  404c0c:	48 33 45 f8          	xor    -0x8(%rbp),%rax
  404c10:	48 89 02             	mov    %rax,(%rdx)
  404c13:	48 8b 45 d8          	mov    -0x28(%rbp),%rax
  404c17:	48 8d 50 70          	lea    0x70(%rax),%rdx
  404c1b:	48 8b 45 d0          	mov    -0x30(%rbp),%rax
  404c1f:	48 83 c0 30          	add    $0x30,%rax
  404c23:	48 8b 08             	mov    (%rax),%rcx
  404c26:	48 8b 45 d0          	mov    -0x30(%rbp),%rax
  404c2a:	48 83 c0 18          	add    $0x18,%rax
  404c2e:	48 8b 00             	mov    (%rax),%rax
  404c31:	48 31 c1             	xor    %rax,%rcx
  404c34:	48 8b 45 d0          	mov    -0x30(%rbp),%rax
  404c38:	48 83 c0 68          	add    $0x68,%rax
  404c3c:	48 8b 00             	mov    (%rax),%rax
  404c3f:	48 31 c1             	xor    %rax,%rcx
  404c42:	48 8b 45 d0          	mov    -0x30(%rbp),%rax
  404c46:	48 83 c0 60          	add    $0x60,%rax
  404c4a:	48 8b 00             	mov    (%rax),%rax
  404c4d:	48 31 c1             	xor    %rax,%rcx
  404c50:	48 8b 45 d0          	mov    -0x30(%rbp),%rax
  404c54:	48 83 c0 58          	add    $0x58,%rax
  404c58:	48 8b 00             	mov    (%rax),%rax
  404c5b:	48 31 c1             	xor    %rax,%rcx
  404c5e:	48 8b 45 d0          	mov    -0x30(%rbp),%rax
  404c62:	48 05 b0 00 00 00    	add    $0xb0,%rax
  404c68:	48 8b 00             	mov    (%rax),%rax
  404c6b:	48 31 c1             	xor    %rax,%rcx
  404c6e:	48 8b 45 d0          	mov    -0x30(%rbp),%rax
  404c72:	48 05 a8 00 00 00    	add    $0xa8,%rax
  404c78:	48 8b 00             	mov    (%rax),%rax
  404c7b:	48 31 c1             	xor    %rax,%rcx
  404c7e:	48 8b 45 d0          	mov    -0x30(%rbp),%rax
  404c82:	48 05 98 00 00 00    	add    $0x98,%rax
  404c88:	48 8b 00             	mov    (%rax),%rax
  404c8b:	48 31 c1             	xor    %rax,%rcx
  404c8e:	48 8b 45 d0          	mov    -0x30(%rbp),%rax
  404c92:	48 05 f0 00 00 00    	add    $0xf0,%rax
  404c98:	48 8b 00             	mov    (%rax),%rax
  404c9b:	48 31 c1             	xor    %rax,%rcx
  404c9e:	48 8b 45 d0          	mov    -0x30(%rbp),%rax
  404ca2:	48 05 e0 00 00 00    	add    $0xe0,%rax
  404ca8:	48 8b 00             	mov    (%rax),%rax
  404cab:	48 31 c1             	xor    %rax,%rcx
  404cae:	48 8b 45 d0          	mov    -0x30(%rbp),%rax
  404cb2:	48 05 d8 00 00 00    	add    $0xd8,%rax
  404cb8:	48 8b 00             	mov    (%rax),%rax
  404cbb:	48 31 c8             	xor    %rcx,%rax
  404cbe:	48 33 45 f8          	xor    -0x8(%rbp),%rax
  404cc2:	48 89 02             	mov    %rax,(%rdx)
  404cc5:	48 8b 45 d8          	mov    -0x28(%rbp),%rax
  404cc9:	48 83 c0 78          	add    $0x78,%rax
  404ccd:	48 8b 55 d0          	mov    -0x30(%rbp),%rdx
  404cd1:	48 83 c2 38          	add    $0x38,%rdx
  404cd5:	48 8b 0a             	mov    (%rdx),%rcx
  404cd8:	48 8b 55 d0          	mov    -0x30(%rbp),%rdx
  404cdc:	48 83 c2 20          	add    $0x20,%rdx
  404ce0:	48 8b 12             	mov    (%rdx),%rdx
  404ce3:	48 31 d1             	xor    %rdx,%rcx
  404ce6:	48 8b 55 d0          	mov    -0x30(%rbp),%rdx
  404cea:	48 83 c2 70          	add    $0x70,%rdx
  404cee:	48 8b 12             	mov    (%rdx),%rdx
  404cf1:	48 31 d1             	xor    %rdx,%rcx
  404cf4:	48 8b 55 d0          	mov    -0x30(%rbp),%rdx
  404cf8:	48 83 c2 68          	add    $0x68,%rdx
  404cfc:	48 8b 12             	mov    (%rdx),%rdx
  404cff:	48 31 d1             	xor    %rdx,%rcx
  404d02:	48 8b 55 d0          	mov    -0x30(%rbp),%rdx
  404d06:	48 83 c2 60          	add    $0x60,%rdx
  404d0a:	48 8b 12             	mov    (%rdx),%rdx
  404d0d:	48 31 d1             	xor    %rdx,%rcx
  404d10:	48 8b 55 d0          	mov    -0x30(%rbp),%rdx
  404d14:	48 81 c2 b8 00 00 00 	add    $0xb8,%rdx
  404d1b:	48 8b 12             	mov    (%rdx),%rdx
  404d1e:	48 31 d1             	xor    %rdx,%rcx
  404d21:	48 8b 55 d0          	mov    -0x30(%rbp),%rdx
  404d25:	48 81 c2 b0 00 00 00 	add    $0xb0,%rdx
  404d2c:	48 8b 12             	mov    (%rdx),%rdx
  404d2f:	48 31 d1             	xor    %rdx,%rcx
  404d32:	48 8b 55 d0          	mov    -0x30(%rbp),%rdx
  404d36:	48 81 c2 a0 00 00 00 	add    $0xa0,%rdx
  404d3d:	48 8b 12             	mov    (%rdx),%rdx
  404d40:	48 31 d1             	xor    %rdx,%rcx
  404d43:	48 8b 55 d0          	mov    -0x30(%rbp),%rdx
  404d47:	48 81 c2 f8 00 00 00 	add    $0xf8,%rdx
  404d4e:	48 8b 12             	mov    (%rdx),%rdx
  404d51:	48 31 d1             	xor    %rdx,%rcx
  404d54:	48 8b 55 d0          	mov    -0x30(%rbp),%rdx
  404d58:	48 81 c2 e8 00 00 00 	add    $0xe8,%rdx
  404d5f:	48 8b 12             	mov    (%rdx),%rdx
  404d62:	48 31 d1             	xor    %rdx,%rcx
  404d65:	48 8b 55 d0          	mov    -0x30(%rbp),%rdx
  404d69:	48 81 c2 e0 00 00 00 	add    $0xe0,%rdx
  404d70:	48 8b 12             	mov    (%rdx),%rdx
  404d73:	48 31 ca             	xor    %rcx,%rdx
  404d76:	48 89 10             	mov    %rdx,(%rax)
  404d79:	48 8b 45 d0          	mov    -0x30(%rbp),%rax
  404d7d:	48 83 c0 68          	add    $0x68,%rax
  404d81:	48 8b 00             	mov    (%rax),%rax
  404d84:	48 8b 55 d0          	mov    -0x30(%rbp),%rdx
  404d88:	48 81 c2 b8 00 00 00 	add    $0xb8,%rdx
  404d8f:	48 8b 0a             	mov    (%rdx),%rcx
  404d92:	48 8b 55 d0          	mov    -0x30(%rbp),%rdx
  404d96:	48 81 c2 b0 00 00 00 	add    $0xb0,%rdx
  404d9d:	48 8b 12             	mov    (%rdx),%rdx
  404da0:	48 31 d1             	xor    %rdx,%rcx
  404da3:	48 8b 55 d0          	mov    -0x30(%rbp),%rdx
  404da7:	48 81 c2 a8 00 00 00 	add    $0xa8,%rdx
  404dae:	48 8b 12             	mov    (%rdx),%rdx
  404db1:	48 31 ca             	xor    %rcx,%rdx
  404db4:	48 31 d0             	xor    %rdx,%rax
  404db7:	48 89 c1             	mov    %rax,%rcx
  404dba:	48 8b 45 d0          	mov    -0x30(%rbp),%rax
  404dbe:	48 05 f8 00 00 00    	add    $0xf8,%rax
  404dc4:	48 8b 10             	mov    (%rax),%rdx
  404dc7:	48 8b 45 d0          	mov    -0x30(%rbp),%rax
  404dcb:	48 05 e8 00 00 00    	add    $0xe8,%rax
  404dd1:	48 8b 00             	mov    (%rax),%rax
  404dd4:	48 31 d0             	xor    %rdx,%rax
  404dd7:	48 31 c1             	xor    %rax,%rcx
  404dda:	48 8b 45 d0          	mov    -0x30(%rbp),%rax
  404dde:	48 83 c0 30          	add    $0x30,%rax
  404de2:	48 8b 10             	mov    (%rax),%rdx
  404de5:	48 8b 45 d0          	mov    -0x30(%rbp),%rax
  404de9:	48 83 c0 28          	add    $0x28,%rax
  404ded:	48 8b 00             	mov    (%rax),%rax
  404df0:	48 31 d0             	xor    %rdx,%rax
  404df3:	48 31 c8             	xor    %rcx,%rax
  404df6:	48 89 45 e8          	mov    %rax,-0x18(%rbp)
  404dfa:	48 8b 45 d0          	mov    -0x30(%rbp),%rax
  404dfe:	48 83 c0 70          	add    $0x70,%rax
  404e02:	48 8b 00             	mov    (%rax),%rax
  404e05:	48 8b 55 d0          	mov    -0x30(%rbp),%rdx
  404e09:	48 81 c2 b8 00 00 00 	add    $0xb8,%rdx
  404e10:	48 8b 0a             	mov    (%rdx),%rcx
  404e13:	48 8b 55 d0          	mov    -0x30(%rbp),%rdx
  404e17:	48 81 c2 b0 00 00 00 	add    $0xb0,%rdx
  404e1e:	48 8b 12             	mov    (%rdx),%rdx
  404e21:	48 31 ca             	xor    %rcx,%rdx
  404e24:	48 31 c2             	xor    %rax,%rdx
  404e27:	48 8b 45 d0          	mov    -0x30(%rbp),%rax
  404e2b:	48 05 f0 00 00 00    	add    $0xf0,%rax
  404e31:	48 8b 00             	mov    (%rax),%rax
  404e34:	48 31 c2             	xor    %rax,%rdx
  404e37:	48 89 d1             	mov    %rdx,%rcx
  404e3a:	48 8b 45 d0          	mov    -0x30(%rbp),%rax
  404e3e:	48 83 c0 38          	add    $0x38,%rax
  404e42:	48 8b 10             	mov    (%rax),%rdx
  404e45:	48 8b 45 d0          	mov    -0x30(%rbp),%rax
  404e49:	48 83 c0 30          	add    $0x30,%rax
  404e4d:	48 8b 00             	mov    (%rax),%rax
  404e50:	48 31 d0             	xor    %rdx,%rax
  404e53:	48 31 c8             	xor    %rcx,%rax
  404e56:	48 89 45 f0          	mov    %rax,-0x10(%rbp)
  404e5a:	48 8b 45 d0          	mov    -0x30(%rbp),%rax
  404e5e:	48 83 c0 78          	add    $0x78,%rax
  404e62:	48 8b 10             	mov    (%rax),%rdx
  404e65:	48 8b 45 d0          	mov    -0x30(%rbp),%rax
  404e69:	48 05 b8 00 00 00    	add    $0xb8,%rax
  404e6f:	48 8b 00             	mov    (%rax),%rax
  404e72:	48 31 c2             	xor    %rax,%rdx
  404e75:	48 8b 45 d0          	mov    -0x30(%rbp),%rax
  404e79:	48 05 f8 00 00 00    	add    $0xf8,%rax
  404e7f:	48 8b 00             	mov    (%rax),%rax
  404e82:	48 31 c2             	xor    %rax,%rdx
  404e85:	48 8b 45 d0          	mov    -0x30(%rbp),%rax
  404e89:	48 83 c0 38          	add    $0x38,%rax
  404e8d:	48 8b 00             	mov    (%rax),%rax
  404e90:	48 31 d0             	xor    %rdx,%rax
  404e93:	48 89 45 f8          	mov    %rax,-0x8(%rbp)
  404e97:	48 8b 45 d8          	mov    -0x28(%rbp),%rax
  404e9b:	48 8d 90 80 00 00 00 	lea    0x80(%rax),%rdx
  404ea2:	48 8b 45 d0          	mov    -0x30(%rbp),%rax
  404ea6:	48 83 c0 40          	add    $0x40,%rax
  404eaa:	48 8b 08             	mov    (%rax),%rcx
  404ead:	48 8b 45 d0          	mov    -0x30(%rbp),%rax
  404eb1:	48 05 c0 00 00 00    	add    $0xc0,%rax
  404eb7:	48 8b 00             	mov    (%rax),%rax
  404eba:	48 31 c1             	xor    %rax,%rcx
  404ebd:	48 8b 45 d0          	mov    -0x30(%rbp),%rax
  404ec1:	48 8b 00             	mov    (%rax),%rax
  404ec4:	48 31 c8             	xor    %rcx,%rax
  404ec7:	48 33 45 e8          	xor    -0x18(%rbp),%rax
  404ecb:	48 89 02             	mov    %rax,(%rdx)
  404ece:	48 8b 45 d8          	mov    -0x28(%rbp),%rax
  404ed2:	48 8d 90 88 00 00 00 	lea    0x88(%rax),%rdx
  404ed9:	48 8b 45 d0          	mov    -0x30(%rbp),%rax
  404edd:	48 83 c0 48          	add    $0x48,%rax
  404ee1:	48 8b 08             	mov    (%rax),%rcx
  404ee4:	48 8b 45 d0          	mov    -0x30(%rbp),%rax
  404ee8:	48 83 e8 80          	sub    $0xffffffffffffff80,%rax
  404eec:	48 8b 00             	mov    (%rax),%rax
  404eef:	48 31 c1             	xor    %rax,%rcx
  404ef2:	48 8b 45 d0          	mov    -0x30(%rbp),%rax
  404ef6:	48 05 c8 00 00 00    	add    $0xc8,%rax
  404efc:	48 8b 00             	mov    (%rax),%rax
  404eff:	48 31 c1             	xor    %rax,%rcx
  404f02:	48 8b 45 d0          	mov    -0x30(%rbp),%rax
  404f06:	48 05 c0 00 00 00    	add    $0xc0,%rax
  404f0c:	48 8b 00             	mov    (%rax),%rax
  404f0f:	48 31 c1             	xor    %rax,%rcx
  404f12:	48 8b 45 d0          	mov    -0x30(%rbp),%rax
  404f16:	48 83 c0 08          	add    $0x8,%rax
  404f1a:	48 8b 00             	mov    (%rax),%rax
  404f1d:	48 31 c8             	xor    %rcx,%rax
  404f20:	48 33 45 e8          	xor    -0x18(%rbp),%rax
  404f24:	48 33 45 f0          	xor    -0x10(%rbp),%rax
  404f28:	48 89 02             	mov    %rax,(%rdx)
  404f2b:	48 8b 45 d8          	mov    -0x28(%rbp),%rax
  404f2f:	48 8d 90 90 00 00 00 	lea    0x90(%rax),%rdx
  404f36:	48 8b 45 d0          	mov    -0x30(%rbp),%rax
  404f3a:	48 83 c0 50          	add    $0x50,%rax
  404f3e:	48 8b 08             	mov    (%rax),%rcx
  404f41:	48 8b 45 d0          	mov    -0x30(%rbp),%rax
  404f45:	48 05 88 00 00 00    	add    $0x88,%rax
  404f4b:	48 8b 00             	mov    (%rax),%rax
  404f4e:	48 31 c1             	xor    %rax,%rcx
  404f51:	48 8b 45 d0          	mov    -0x30(%rbp),%rax
  404f55:	48 83 e8 80          	sub    $0xffffffffffffff80,%rax
  404f59:	48 8b 00             	mov    (%rax),%rax
  404f5c:	48 31 c1             	xor    %rax,%rcx
  404f5f:	48 8b 45 d0          	mov    -0x30(%rbp),%rax
  404f63:	48 05 d0 00 00 00    	add    $0xd0,%rax
  404f69:	48 8b 00             	mov    (%rax),%rax
  404f6c:	48 31 c1             	xor    %rax,%rcx
  404f6f:	48 8b 45 d0          	mov    -0x30(%rbp),%rax
  404f73:	48 05 c8 00 00 00    	add    $0xc8,%rax
  404f79:	48 8b 00             	mov    (%rax),%rax
  404f7c:	48 31 c1             	xor    %rax,%rcx
  404f7f:	48 8b 45 d0          	mov    -0x30(%rbp),%rax
  404f83:	48 83 c0 10          	add    $0x10,%rax
  404f87:	48 8b 00             	mov    (%rax),%rax
  404f8a:	48 31 c1             	xor    %rax,%rcx
  404f8d:	48 8b 45 d0          	mov    -0x30(%rbp),%rax
  404f91:	48 8b 00             	mov    (%rax),%rax
  404f94:	48 31 c8             	xor    %rcx,%rax
  404f97:	48 33 45 f0          	xor    -0x10(%rbp),%rax
  404f9b:	48 33 45 f8          	xor    -0x8(%rbp),%rax
  404f9f:	48 89 02             	mov    %rax,(%rdx)
  404fa2:	48 8b 45 d8          	mov    -0x28(%rbp),%rax
  404fa6:	48 8d 90 98 00 00 00 	lea    0x98(%rax),%rdx
  404fad:	48 8b 45 d0          	mov    -0x30(%rbp),%rax
  404fb1:	48 83 c0 58          	add    $0x58,%rax
  404fb5:	48 8b 08             	mov    (%rax),%rcx
  404fb8:	48 8b 45 d0          	mov    -0x30(%rbp),%rax
  404fbc:	48 83 c0 40          	add    $0x40,%rax
  404fc0:	48 8b 00             	mov    (%rax),%rax
  404fc3:	48 31 c1             	xor    %rax,%rcx
  404fc6:	48 8b 45 d0          	mov    -0x30(%rbp),%rax
  404fca:	48 05 90 00 00 00    	add    $0x90,%rax
  404fd0:	48 8b 00             	mov    (%rax),%rax
  404fd3:	48 31 c1             	xor    %rax,%rcx
  404fd6:	48 8b 45 d0          	mov    -0x30(%rbp),%rax
  404fda:	48 05 88 00 00 00    	add    $0x88,%rax
  404fe0:	48 8b 00             	mov    (%rax),%rax
  404fe3:	48 31 c1             	xor    %rax,%rcx
  404fe6:	48 8b 45 d0          	mov    -0x30(%rbp),%rax
  404fea:	48 83 e8 80          	sub    $0xffffffffffffff80,%rax
  404fee:	48 8b 00             	mov    (%rax),%rax
  404ff1:	48 31 c1             	xor    %rax,%rcx
  404ff4:	48 8b 45 d0          	mov    -0x30(%rbp),%rax
  404ff8:	48 05 d8 00 00 00    	add    $0xd8,%rax
  404ffe:	48 8b 00             	mov    (%rax),%rax
  405001:	48 31 c1             	xor    %rax,%rcx
  405004:	48 8b 45 d0          	mov    -0x30(%rbp),%rax
  405008:	48 05 d0 00 00 00    	add    $0xd0,%rax
  40500e:	48 8b 00             	mov    (%rax),%rax
  405011:	48 31 c1             	xor    %rax,%rcx
  405014:	48 8b 45 d0          	mov    -0x30(%rbp),%rax
  405018:	48 05 c0 00 00 00    	add    $0xc0,%rax
  40501e:	48 8b 00             	mov    (%rax),%rax
  405021:	48 31 c1             	xor    %rax,%rcx
  405024:	48 8b 45 d0          	mov    -0x30(%rbp),%rax
  405028:	48 83 c0 18          	add    $0x18,%rax
  40502c:	48 8b 00             	mov    (%rax),%rax
  40502f:	48 31 c1             	xor    %rax,%rcx
  405032:	48 8b 45 d0          	mov    -0x30(%rbp),%rax
  405036:	48 83 c0 08          	add    $0x8,%rax
  40503a:	48 8b 00             	mov    (%rax),%rax
  40503d:	48 31 c1             	xor    %rax,%rcx
  405040:	48 8b 45 d0          	mov    -0x30(%rbp),%rax
  405044:	48 8b 00             	mov    (%rax),%rax
  405047:	48 31 c8             	xor    %rcx,%rax
  40504a:	48 33 45 e8          	xor    -0x18(%rbp),%rax
  40504e:	48 33 45 f8          	xor    -0x8(%rbp),%rax
  405052:	48 89 02             	mov    %rax,(%rdx)
  405055:	48 8b 45 d8          	mov    -0x28(%rbp),%rax
  405059:	48 8d 90 a0 00 00 00 	lea    0xa0(%rax),%rdx
  405060:	48 8b 45 d0          	mov    -0x30(%rbp),%rax
  405064:	48 83 c0 60          	add    $0x60,%rax
  405068:	48 8b 08             	mov    (%rax),%rcx
  40506b:	48 8b 45 d0          	mov    -0x30(%rbp),%rax
  40506f:	48 83 c0 48          	add    $0x48,%rax
  405073:	48 8b 00             	mov    (%rax),%rax
  405076:	48 31 c1             	xor    %rax,%rcx
  405079:	48 8b 45 d0          	mov    -0x30(%rbp),%rax
  40507d:	48 05 98 00 00 00    	add    $0x98,%rax
  405083:	48 8b 00             	mov    (%rax),%rax
  405086:	48 31 c1             	xor    %rax,%rcx
  405089:	48 8b 45 d0          	mov    -0x30(%rbp),%rax
  40508d:	48 05 90 00 00 00    	add    $0x90,%rax
  405093:	48 8b 00             	mov    (%rax),%rax
  405096:	48 31 c1             	xor    %rax,%rcx
  405099:	48 8b 45 d0          	mov    -0x30(%rbp),%rax
  40509d:	48 05 88 00 00 00    	add    $0x88,%rax
  4050a3:	48 8b 00             	mov    (%rax),%rax
  4050a6:	48 31 c1             	xor    %rax,%rcx
  4050a9:	48 8b 45 d0          	mov    -0x30(%rbp),%rax
  4050ad:	48 05 e0 00 00 00    	add    $0xe0,%rax
  4050b3:	48 8b 00             	mov    (%rax),%rax
  4050b6:	48 31 c1             	xor    %rax,%rcx
  4050b9:	48 8b 45 d0          	mov    -0x30(%rbp),%rax
  4050bd:	48 05 d8 00 00 00    	add    $0xd8,%rax
  4050c3:	48 8b 00             	mov    (%rax),%rax
  4050c6:	48 31 c1             	xor    %rax,%rcx
  4050c9:	48 8b 45 d0          	mov    -0x30(%rbp),%rax
  4050cd:	48 05 c8 00 00 00    	add    $0xc8,%rax
  4050d3:	48 8b 00             	mov    (%rax),%rax
  4050d6:	48 31 c1             	xor    %rax,%rcx
  4050d9:	48 8b 45 d0          	mov    -0x30(%rbp),%rax
  4050dd:	48 83 c0 20          	add    $0x20,%rax
  4050e1:	48 8b 00             	mov    (%rax),%rax
  4050e4:	48 31 c1             	xor    %rax,%rcx
  4050e7:	48 8b 45 d0          	mov    -0x30(%rbp),%rax
  4050eb:	48 83 c0 10          	add    $0x10,%rax
  4050ef:	48 8b 00             	mov    (%rax),%rax
  4050f2:	48 31 c1             	xor    %rax,%rcx
  4050f5:	48 8b 45 d0          	mov    -0x30(%rbp),%rax
  4050f9:	48 83 c0 08          	add    $0x8,%rax
  4050fd:	48 8b 00             	mov    (%rax),%rax
  405100:	48 31 c8             	xor    %rcx,%rax
  405103:	48 33 45 e8          	xor    -0x18(%rbp),%rax
  405107:	48 33 45 f0          	xor    -0x10(%rbp),%rax
  40510b:	48 89 02             	mov    %rax,(%rdx)
  40510e:	48 8b 45 d8          	mov    -0x28(%rbp),%rax
  405112:	48 8d 90 a8 00 00 00 	lea    0xa8(%rax),%rdx
  405119:	48 8b 45 d0          	mov    -0x30(%rbp),%rax
  40511d:	48 83 c0 68          	add    $0x68,%rax
  405121:	48 8b 08             	mov    (%rax),%rcx
  405124:	48 8b 45 d0          	mov    -0x30(%rbp),%rax
  405128:	48 83 c0 50          	add    $0x50,%rax
  40512c:	48 8b 00             	mov    (%rax),%rax
  40512f:	48 31 c1             	xor    %rax,%rcx
  405132:	48 8b 45 d0          	mov    -0x30(%rbp),%rax
  405136:	48 05 a0 00 00 00    	add    $0xa0,%rax
  40513c:	48 8b 00             	mov    (%rax),%rax
  40513f:	48 31 c1             	xor    %rax,%rcx
  405142:	48 8b 45 d0          	mov    -0x30(%rbp),%rax
  405146:	48 05 98 00 00 00    	add    $0x98,%rax
  40514c:	48 8b 00             	mov    (%rax),%rax
  40514f:	48 31 c1             	xor    %rax,%rcx
  405152:	48 8b 45 d0          	mov    -0x30(%rbp),%rax
  405156:	48 05 90 00 00 00    	add    $0x90,%rax
  40515c:	48 8b 00             	mov    (%rax),%rax
  40515f:	48 31 c1             	xor    %rax,%rcx
  405162:	48 8b 45 d0          	mov    -0x30(%rbp),%rax
  405166:	48 05 e8 00 00 00    	add    $0xe8,%rax
  40516c:	48 8b 00             	mov    (%rax),%rax
  40516f:	48 31 c1             	xor    %rax,%rcx
  405172:	48 8b 45 d0          	mov    -0x30(%rbp),%rax
  405176:	48 05 e0 00 00 00    	add    $0xe0,%rax
  40517c:	48 8b 00             	mov    (%rax),%rax
  40517f:	48 31 c1             	xor    %rax,%rcx
  405182:	48 8b 45 d0          	mov    -0x30(%rbp),%rax
  405186:	48 05 d0 00 00 00    	add    $0xd0,%rax
  40518c:	48 8b 00             	mov    (%rax),%rax
  40518f:	48 31 c1             	xor    %rax,%rcx
  405192:	48 8b 45 d0          	mov    -0x30(%rbp),%rax
  405196:	48 83 c0 28          	add    $0x28,%rax
  40519a:	48 8b 00             	mov    (%rax),%rax
  40519d:	48 31 c1             	xor    %rax,%rcx
  4051a0:	48 8b 45 d0          	mov    -0x30(%rbp),%rax
  4051a4:	48 83 c0 18          	add    $0x18,%rax
  4051a8:	48 8b 00             	mov    (%rax),%rax
  4051ab:	48 31 c1             	xor    %rax,%rcx
  4051ae:	48 8b 45 d0          	mov    -0x30(%rbp),%rax
  4051b2:	48 83 c0 10          	add    $0x10,%rax
  4051b6:	48 8b 00             	mov    (%rax),%rax
  4051b9:	48 31 c8             	xor    %rcx,%rax
  4051bc:	48 33 45 f0          	xor    -0x10(%rbp),%rax
  4051c0:	48 33 45 f8          	xor    -0x8(%rbp),%rax
  4051c4:	48 89 02             	mov    %rax,(%rdx)
  4051c7:	48 8b 45 d8          	mov    -0x28(%rbp),%rax
  4051cb:	48 8d 90 b0 00 00 00 	lea    0xb0(%rax),%rdx
  4051d2:	48 8b 45 d0          	mov    -0x30(%rbp),%rax
  4051d6:	48 83 c0 70          	add    $0x70,%rax
  4051da:	48 8b 08             	mov    (%rax),%rcx
  4051dd:	48 8b 45 d0          	mov    -0x30(%rbp),%rax
  4051e1:	48 83 c0 58          	add    $0x58,%rax
  4051e5:	48 8b 00             	mov    (%rax),%rax
  4051e8:	48 31 c1             	xor    %rax,%rcx
  4051eb:	48 8b 45 d0          	mov    -0x30(%rbp),%rax
  4051ef:	48 05 a8 00 00 00    	add    $0xa8,%rax
  4051f5:	48 8b 00             	mov    (%rax),%rax
  4051f8:	48 31 c1             	xor    %rax,%rcx
  4051fb:	48 8b 45 d0          	mov    -0x30(%rbp),%rax
  4051ff:	48 05 a0 00 00 00    	add    $0xa0,%rax
  405205:	48 8b 00             	mov    (%rax),%rax
  405208:	48 31 c1             	xor    %rax,%rcx
  40520b:	48 8b 45 d0          	mov    -0x30(%rbp),%rax
  40520f:	48 05 98 00 00 00    	add    $0x98,%rax
  405215:	48 8b 00             	mov    (%rax),%rax
  405218:	48 31 c1             	xor    %rax,%rcx
  40521b:	48 8b 45 d0          	mov    -0x30(%rbp),%rax
  40521f:	48 05 f0 00 00 00    	add    $0xf0,%rax
  405225:	48 8b 00             	mov    (%rax),%rax
  405228:	48 31 c1             	xor    %rax,%rcx
  40522b:	48 8b 45 d0          	mov    -0x30(%rbp),%rax
  40522f:	48 05 e8 00 00 00    	add    $0xe8,%rax
  405235:	48 8b 00             	mov    (%rax),%rax
  405238:	48 31 c1             	xor    %rax,%rcx
  40523b:	48 8b 45 d0          	mov    -0x30(%rbp),%rax
  40523f:	48 05 d8 00 00 00    	add    $0xd8,%rax
  405245:	48 8b 00             	mov    (%rax),%rax
  405248:	48 31 c1             	xor    %rax,%rcx
  40524b:	48 8b 45 d0          	mov    -0x30(%rbp),%rax
  40524f:	48 83 c0 30          	add    $0x30,%rax
  405253:	48 8b 00             	mov    (%rax),%rax
  405256:	48 31 c1             	xor    %rax,%rcx
  405259:	48 8b 45 d0          	mov    -0x30(%rbp),%rax
  40525d:	48 83 c0 20          	add    $0x20,%rax
  405261:	48 8b 00             	mov    (%rax),%rax
  405264:	48 31 c1             	xor    %rax,%rcx
  405267:	48 8b 45 d0          	mov    -0x30(%rbp),%rax
  40526b:	48 83 c0 18          	add    $0x18,%rax
  40526f:	48 8b 00             	mov    (%rax),%rax
  405272:	48 31 c8             	xor    %rcx,%rax
  405275:	48 33 45 f8          	xor    -0x8(%rbp),%rax
  405279:	48 89 02             	mov    %rax,(%rdx)
  40527c:	48 8b 45 d8          	mov    -0x28(%rbp),%rax
  405280:	48 05 b8 00 00 00    	add    $0xb8,%rax
  405286:	48 8b 55 d0          	mov    -0x30(%rbp),%rdx
  40528a:	48 83 c2 78          	add    $0x78,%rdx
  40528e:	48 8b 0a             	mov    (%rdx),%rcx
  405291:	48 8b 55 d0          	mov    -0x30(%rbp),%rdx
  405295:	48 83 c2 60          	add    $0x60,%rdx
  405299:	48 8b 12             	mov    (%rdx),%rdx
  40529c:	48 31 d1             	xor    %rdx,%rcx
  40529f:	48 8b 55 d0          	mov    -0x30(%rbp),%rdx
  4052a3:	48 81 c2 b0 00 00 00 	add    $0xb0,%rdx
  4052aa:	48 8b 12             	mov    (%rdx),%rdx
  4052ad:	48 31 d1             	xor    %rdx,%rcx
  4052b0:	48 8b 55 d0          	mov    -0x30(%rbp),%rdx
  4052b4:	48 81 c2 a8 00 00 00 	add    $0xa8,%rdx
  4052bb:	48 8b 12             	mov    (%rdx),%rdx
  4052be:	48 31 d1             	xor    %rdx,%rcx
  4052c1:	48 8b 55 d0          	mov    -0x30(%rbp),%rdx
  4052c5:	48 81 c2 a0 00 00 00 	add    $0xa0,%rdx
  4052cc:	48 8b 12             	mov    (%rdx),%rdx
  4052cf:	48 31 d1             	xor    %rdx,%rcx
  4052d2:	48 8b 55 d0          	mov    -0x30(%rbp),%rdx
  4052d6:	48 81 c2 f8 00 00 00 	add    $0xf8,%rdx
  4052dd:	48 8b 12             	mov    (%rdx),%rdx
  4052e0:	48 31 d1             	xor    %rdx,%rcx
  4052e3:	48 8b 55 d0          	mov    -0x30(%rbp),%rdx
  4052e7:	48 81 c2 f0 00 00 00 	add    $0xf0,%rdx
  4052ee:	48 8b 12             	mov    (%rdx),%rdx
  4052f1:	48 31 d1             	xor    %rdx,%rcx
  4052f4:	48 8b 55 d0          	mov    -0x30(%rbp),%rdx
  4052f8:	48 81 c2 e0 00 00 00 	add    $0xe0,%rdx
  4052ff:	48 8b 12             	mov    (%rdx),%rdx
  405302:	48 31 d1             	xor    %rdx,%rcx
  405305:	48 8b 55 d0          	mov    -0x30(%rbp),%rdx
  405309:	48 83 c2 38          	add    $0x38,%rdx
  40530d:	48 8b 12             	mov    (%rdx),%rdx
  405310:	48 31 d1             	xor    %rdx,%rcx
  405313:	48 8b 55 d0          	mov    -0x30(%rbp),%rdx
  405317:	48 83 c2 28          	add    $0x28,%rdx
  40531b:	48 8b 12             	mov    (%rdx),%rdx
  40531e:	48 31 d1             	xor    %rdx,%rcx
  405321:	48 8b 55 d0          	mov    -0x30(%rbp),%rdx
  405325:	48 83 c2 20          	add    $0x20,%rdx
  405329:	48 8b 12             	mov    (%rdx),%rdx
  40532c:	48 31 ca             	xor    %rcx,%rdx
  40532f:	48 89 10             	mov    %rdx,(%rax)
  405332:	48 8b 45 d0          	mov    -0x30(%rbp),%rax
  405336:	48 05 a8 00 00 00    	add    $0xa8,%rax
  40533c:	48 8b 00             	mov    (%rax),%rax
  40533f:	48 8b 55 d0          	mov    -0x30(%rbp),%rdx
  405343:	48 81 c2 f8 00 00 00 	add    $0xf8,%rdx
  40534a:	48 8b 0a             	mov    (%rdx),%rcx
  40534d:	48 8b 55 d0          	mov    -0x30(%rbp),%rdx
  405351:	48 81 c2 f0 00 00 00 	add    $0xf0,%rdx
  405358:	48 8b 12             	mov    (%rdx),%rdx
  40535b:	48 31 d1             	xor    %rdx,%rcx
  40535e:	48 8b 55 d0          	mov    -0x30(%rbp),%rdx
  405362:	48 81 c2 e8 00 00 00 	add    $0xe8,%rdx
  405369:	48 8b 12             	mov    (%rdx),%rdx
  40536c:	48 31 ca             	xor    %rcx,%rdx
  40536f:	48 31 d0             	xor    %rdx,%rax
  405372:	48 89 c1             	mov    %rax,%rcx
  405375:	48 8b 45 d0          	mov    -0x30(%rbp),%rax
  405379:	48 83 c0 38          	add    $0x38,%rax
  40537d:	48 8b 10             	mov    (%rax),%rdx
  405380:	48 8b 45 d0          	mov    -0x30(%rbp),%rax
  405384:	48 83 c0 28          	add    $0x28,%rax
  405388:	48 8b 00             	mov    (%rax),%rax
  40538b:	48 31 d0             	xor    %rdx,%rax
  40538e:	48 31 c1             	xor    %rax,%rcx
  405391:	48 8b 45 d0          	mov    -0x30(%rbp),%rax
  405395:	48 83 c0 70          	add    $0x70,%rax
  405399:	48 8b 10             	mov    (%rax),%rdx
  40539c:	48 8b 45 d0          	mov    -0x30(%rbp),%rax
  4053a0:	48 83 c0 68          	add    $0x68,%rax
  4053a4:	48 8b 00             	mov    (%rax),%rax
  4053a7:	48 31 d0             	xor    %rdx,%rax
  4053aa:	48 31 c8             	xor    %rcx,%rax
  4053ad:	48 89 45 e8          	mov    %rax,-0x18(%rbp)
  4053b1:	48 8b 45 d0          	mov    -0x30(%rbp),%rax
  4053b5:	48 05 b0 00 00 00    	add    $0xb0,%rax
  4053bb:	48 8b 00             	mov    (%rax),%rax
  4053be:	48 8b 55 d0          	mov    -0x30(%rbp),%rdx
  4053c2:	48 81 c2 f8 00 00 00 	add    $0xf8,%rdx
  4053c9:	48 8b 0a             	mov    (%rdx),%rcx
  4053cc:	48 8b 55 d0          	mov    -0x30(%rbp),%rdx
  4053d0:	48 81 c2 f0 00 00 00 	add    $0xf0,%rdx
  4053d7:	48 8b 12             	mov    (%rdx),%rdx
  4053da:	48 31 ca             	xor    %rcx,%rdx
  4053dd:	48 31 c2             	xor    %rax,%rdx
  4053e0:	48 8b 45 d0          	mov    -0x30(%rbp),%rax
  4053e4:	48 83 c0 30          	add    $0x30,%rax
  4053e8:	48 8b 00             	mov    (%rax),%rax
  4053eb:	48 31 c2             	xor    %rax,%rdx
  4053ee:	48 89 d1             	mov    %rdx,%rcx
  4053f1:	48 8b 45 d0          	mov    -0x30(%rbp),%rax
  4053f5:	48 83 c0 78          	add    $0x78,%rax
  4053f9:	48 8b 10             	mov    (%rax),%rdx
  4053fc:	48 8b 45 d0          	mov    -0x30(%rbp),%rax
  405400:	48 83 c0 70          	add    $0x70,%rax
  405404:	48 8b 00             	mov    (%rax),%rax
  405407:	48 31 d0             	xor    %rdx,%rax
  40540a:	48 31 c8             	xor    %rcx,%rax
  40540d:	48 89 45 f0          	mov    %rax,-0x10(%rbp)
  405411:	48 8b 45 d0          	mov    -0x30(%rbp),%rax
  405415:	48 05 b8 00 00 00    	add    $0xb8,%rax
  40541b:	48 8b 10             	mov    (%rax),%rdx
  40541e:	48 8b 45 d0          	mov    -0x30(%rbp),%rax
  405422:	48 05 f8 00 00 00    	add    $0xf8,%rax
  405428:	48 8b 00             	mov    (%rax),%rax
  40542b:	48 31 c2             	xor    %rax,%rdx
  40542e:	48 8b 45 d0          	mov    -0x30(%rbp),%rax
  405432:	48 83 c0 38          	add    $0x38,%rax
  405436:	48 8b 00             	mov    (%rax),%rax
  405439:	48 31 c2             	xor    %rax,%rdx
  40543c:	48 8b 45 d0          	mov    -0x30(%rbp),%rax
  405440:	48 83 c0 78          	add    $0x78,%rax
  405444:	48 8b 00             	mov    (%rax),%rax
  405447:	48 31 d0             	xor    %rdx,%rax
  40544a:	48 89 45 f8          	mov    %rax,-0x8(%rbp)
  40544e:	48 8b 45 d8          	mov    -0x28(%rbp),%rax
  405452:	48 8d 90 c0 00 00 00 	lea    0xc0(%rax),%rdx
  405459:	48 8b 45 d0          	mov    -0x30(%rbp),%rax
  40545d:	48 83 e8 80          	sub    $0xffffffffffffff80,%rax
  405461:	48 8b 08             	mov    (%rax),%rcx
  405464:	48 8b 45 d0          	mov    -0x30(%rbp),%rax
  405468:	48 8b 00             	mov    (%rax),%rax
  40546b:	48 31 c1             	xor    %rax,%rcx
  40546e:	48 8b 45 d0          	mov    -0x30(%rbp),%rax
  405472:	48 83 c0 40          	add    $0x40,%rax
  405476:	48 8b 00             	mov    (%rax),%rax
  405479:	48 31 c8             	xor    %rcx,%rax
  40547c:	48 33 45 e8          	xor    -0x18(%rbp),%rax
  405480:	48 89 02             	mov    %rax,(%rdx)
  405483:	48 8b 45 d8          	mov    -0x28(%rbp),%rax
  405487:	48 8d 90 c8 00 00 00 	lea    0xc8(%rax),%rdx
  40548e:	48 8b 45 d0          	mov    -0x30(%rbp),%rax
  405492:	48 05 88 00 00 00    	add    $0x88,%rax
  405498:	48 8b 08             	mov    (%rax),%rcx
  40549b:	48 8b 45 d0          	mov    -0x30(%rbp),%rax
  40549f:	48 05 c0 00 00 00    	add    $0xc0,%rax
  4054a5:	48 8b 00             	mov    (%rax),%rax
  4054a8:	48 31 c1             	xor    %rax,%rcx
  4054ab:	48 8b 45 d0          	mov    -0x30(%rbp),%rax
  4054af:	48 83 c0 08          	add    $0x8,%rax
  4054b3:	48 8b 00             	mov    (%rax),%rax
  4054b6:	48 31 c1             	xor    %rax,%rcx
  4054b9:	48 8b 45 d0          	mov    -0x30(%rbp),%rax
  4054bd:	48 8b 00             	mov    (%rax),%rax
  4054c0:	48 31 c1             	xor    %rax,%rcx
  4054c3:	48 8b 45 d0          	mov    -0x30(%rbp),%rax
  4054c7:	48 83 c0 48          	add    $0x48,%rax
  4054cb:	48 8b 00             	mov    (%rax),%rax
  4054ce:	48 31 c8             	xor    %rcx,%rax
  4054d1:	48 33 45 e8          	xor    -0x18(%rbp),%rax
  4054d5:	48 33 45 f0          	xor    -0x10(%rbp),%rax
  4054d9:	48 89 02             	mov    %rax,(%rdx)
  4054dc:	48 8b 45 d8          	mov    -0x28(%rbp),%rax
  4054e0:	48 8d 90 d0 00 00 00 	lea    0xd0(%rax),%rdx
  4054e7:	48 8b 45 d0          	mov    -0x30(%rbp),%rax
  4054eb:	48 05 90 00 00 00    	add    $0x90,%rax
  4054f1:	48 8b 08             	mov    (%rax),%rcx
  4054f4:	48 8b 45 d0          	mov    -0x30(%rbp),%rax
  4054f8:	48 05 c8 00 00 00    	add    $0xc8,%rax
  4054fe:	48 8b 00             	mov    (%rax),%rax
  405501:	48 31 c1             	xor    %rax,%rcx
  405504:	48 8b 45 d0          	mov    -0x30(%rbp),%rax
  405508:	48 05 c0 00 00 00    	add    $0xc0,%rax
  40550e:	48 8b 00             	mov    (%rax),%rax
  405511:	48 31 c1             	xor    %rax,%rcx
  405514:	48 8b 45 d0          	mov    -0x30(%rbp),%rax
  405518:	48 83 c0 10          	add    $0x10,%rax
  40551c:	48 8b 00             	mov    (%rax),%rax
  40551f:	48 31 c1             	xor    %rax,%rcx
  405522:	48 8b 45 d0          	mov    -0x30(%rbp),%rax
  405526:	48 83 c0 08          	add    $0x8,%rax
  40552a:	48 8b 00             	mov    (%rax),%rax
  40552d:	48 31 c1             	xor    %rax,%rcx
  405530:	48 8b 45 d0          	mov    -0x30(%rbp),%rax
  405534:	48 83 c0 50          	add    $0x50,%rax
  405538:	48 8b 00             	mov    (%rax),%rax
  40553b:	48 31 c1             	xor    %rax,%rcx
  40553e:	48 8b 45 d0          	mov    -0x30(%rbp),%rax
  405542:	48 83 c0 40          	add    $0x40,%rax
  405546:	48 8b 00             	mov    (%rax),%rax
  405549:	48 31 c8             	xor    %rcx,%rax
  40554c:	48 33 45 f0          	xor    -0x10(%rbp),%rax
  405550:	48 33 45 f8          	xor    -0x8(%rbp),%rax
  405554:	48 89 02             	mov    %rax,(%rdx)
  405557:	48 8b 45 d8          	mov    -0x28(%rbp),%rax
  40555b:	48 8d 90 d8 00 00 00 	lea    0xd8(%rax),%rdx
  405562:	48 8b 45 d0          	mov    -0x30(%rbp),%rax
  405566:	48 05 98 00 00 00    	add    $0x98,%rax
  40556c:	48 8b 08             	mov    (%rax),%rcx
  40556f:	48 8b 45 d0          	mov    -0x30(%rbp),%rax
  405573:	48 83 e8 80          	sub    $0xffffffffffffff80,%rax
  405577:	48 8b 00             	mov    (%rax),%rax
  40557a:	48 31 c1             	xor    %rax,%rcx
  40557d:	48 8b 45 d0          	mov    -0x30(%rbp),%rax
  405581:	48 05 d0 00 00 00    	add    $0xd0,%rax
  405587:	48 8b 00             	mov    (%rax),%rax
  40558a:	48 31 c1             	xor    %rax,%rcx
  40558d:	48 8b 45 d0          	mov    -0x30(%rbp),%rax
  405591:	48 05 c8 00 00 00    	add    $0xc8,%rax
  405597:	48 8b 00             	mov    (%rax),%rax
  40559a:	48 31 c1             	xor    %rax,%rcx
  40559d:	48 8b 45 d0          	mov    -0x30(%rbp),%rax
  4055a1:	48 05 c0 00 00 00    	add    $0xc0,%rax
  4055a7:	48 8b 00             	mov    (%rax),%rax
  4055aa:	48 31 c1             	xor    %rax,%rcx
  4055ad:	48 8b 45 d0          	mov    -0x30(%rbp),%rax
  4055b1:	48 83 c0 18          	add    $0x18,%rax
  4055b5:	48 8b 00             	mov    (%rax),%rax
  4055b8:	48 31 c1             	xor    %rax,%rcx
  4055bb:	48 8b 45 d0          	mov    -0x30(%rbp),%rax
  4055bf:	48 83 c0 10          	add    $0x10,%rax
  4055c3:	48 8b 00             	mov    (%rax),%rax
  4055c6:	48 31 c1             	xor    %rax,%rcx
  4055c9:	48 8b 45 d0          	mov    -0x30(%rbp),%rax
  4055cd:	48 8b 00             	mov    (%rax),%rax
  4055d0:	48 31 c1             	xor    %rax,%rcx
  4055d3:	48 8b 45 d0          	mov    -0x30(%rbp),%rax
  4055d7:	48 83 c0 58          	add    $0x58,%rax
  4055db:	48 8b 00             	mov    (%rax),%rax
  4055de:	48 31 c1             	xor    %rax,%rcx
  4055e1:	48 8b 45 d0          	mov    -0x30(%rbp),%rax
  4055e5:	48 83 c0 48          	add    $0x48,%rax
  4055e9:	48 8b 00             	mov    (%rax),%rax
  4055ec:	48 31 c1             	xor    %rax,%rcx
  4055ef:	48 8b 45 d0          	mov    -0x30(%rbp),%rax
  4055f3:	48 83 c0 40          	add    $0x40,%rax
  4055f7:	48 8b 00             	mov    (%rax),%rax
  4055fa:	48 31 c8             	xor    %rcx,%rax
  4055fd:	48 33 45 e8          	xor    -0x18(%rbp),%rax
  405601:	48 33 45 f8          	xor    -0x8(%rbp),%rax
  405605:	48 89 02             	mov    %rax,(%rdx)
  405608:	48 8b 45 d8          	mov    -0x28(%rbp),%rax
  40560c:	48 8d 90 e0 00 00 00 	lea    0xe0(%rax),%rdx
  405613:	48 8b 45 d0          	mov    -0x30(%rbp),%rax
  405617:	48 05 a0 00 00 00    	add    $0xa0,%rax
  40561d:	48 8b 08             	mov    (%rax),%rcx
  405620:	48 8b 45 d0          	mov    -0x30(%rbp),%rax
  405624:	48 05 88 00 00 00    	add    $0x88,%rax
  40562a:	48 8b 00             	mov    (%rax),%rax
  40562d:	48 31 c1             	xor    %rax,%rcx
  405630:	48 8b 45 d0          	mov    -0x30(%rbp),%rax
  405634:	48 05 d8 00 00 00    	add    $0xd8,%rax
  40563a:	48 8b 00             	mov    (%rax),%rax
  40563d:	48 31 c1             	xor    %rax,%rcx
  405640:	48 8b 45 d0          	mov    -0x30(%rbp),%rax
  405644:	48 05 d0 00 00 00    	add    $0xd0,%rax
  40564a:	48 8b 00             	mov    (%rax),%rax
  40564d:	48 31 c1             	xor    %rax,%rcx
  405650:	48 8b 45 d0          	mov    -0x30(%rbp),%rax
  405654:	48 05 c8 00 00 00    	add    $0xc8,%rax
  40565a:	48 8b 00             	mov    (%rax),%rax
  40565d:	48 31 c1             	xor    %rax,%rcx
  405660:	48 8b 45 d0          	mov    -0x30(%rbp),%rax
  405664:	48 83 c0 20          	add    $0x20,%rax
  405668:	48 8b 00             	mov    (%rax),%rax
  40566b:	48 31 c1             	xor    %rax,%rcx
  40566e:	48 8b 45 d0          	mov    -0x30(%rbp),%rax
  405672:	48 83 c0 18          	add    $0x18,%rax
  405676:	48 8b 00             	mov    (%rax),%rax
  405679:	48 31 c1             	xor    %rax,%rcx
  40567c:	48 8b 45 d0          	mov    -0x30(%rbp),%rax
  405680:	48 83 c0 08          	add    $0x8,%rax
  405684:	48 8b 00             	mov    (%rax),%rax
  405687:	48 31 c1             	xor    %rax,%rcx
  40568a:	48 8b 45 d0          	mov    -0x30(%rbp),%rax
  40568e:	48 83 c0 60          	add    $0x60,%rax
  405692:	48 8b 00             	mov    (%rax),%rax
  405695:	48 31 c1             	xor    %rax,%rcx
  405698:	48 8b 45 d0          	mov    -0x30(%rbp),%rax
  40569c:	48 83 c0 50          	add    $0x50,%rax
  4056a0:	48 8b 00             	mov    (%rax),%rax
  4056a3:	48 31 c1             	xor    %rax,%rcx
  4056a6:	48 8b 45 d0          	mov    -0x30(%rbp),%rax
  4056aa:	48 83 c0 48          	add    $0x48,%rax
  4056ae:	48 8b 00             	mov    (%rax),%rax
  4056b1:	48 31 c8             	xor    %rcx,%rax
  4056b4:	48 33 45 e8          	xor    -0x18(%rbp),%rax
  4056b8:	48 33 45 f0          	xor    -0x10(%rbp),%rax
  4056bc:	48 89 02             	mov    %rax,(%rdx)
  4056bf:	48 8b 45 d8          	mov    -0x28(%rbp),%rax
  4056c3:	48 8d 90 e8 00 00 00 	lea    0xe8(%rax),%rdx
  4056ca:	48 8b 45 d0          	mov    -0x30(%rbp),%rax
  4056ce:	48 05 a8 00 00 00    	add    $0xa8,%rax
  4056d4:	48 8b 08             	mov    (%rax),%rcx
  4056d7:	48 8b 45 d0          	mov    -0x30(%rbp),%rax
  4056db:	48 05 90 00 00 00    	add    $0x90,%rax
  4056e1:	48 8b 00             	mov    (%rax),%rax
  4056e4:	48 31 c1             	xor    %rax,%rcx
  4056e7:	48 8b 45 d0          	mov    -0x30(%rbp),%rax
  4056eb:	48 05 e0 00 00 00    	add    $0xe0,%rax
  4056f1:	48 8b 00             	mov    (%rax),%rax
  4056f4:	48 31 c1             	xor    %rax,%rcx
  4056f7:	48 8b 45 d0          	mov    -0x30(%rbp),%rax
  4056fb:	48 05 d8 00 00 00    	add    $0xd8,%rax
  405701:	48 8b 00             	mov    (%rax),%rax
  405704:	48 31 c1             	xor    %rax,%rcx
  405707:	48 8b 45 d0          	mov    -0x30(%rbp),%rax
  40570b:	48 05 d0 00 00 00    	add    $0xd0,%rax
  405711:	48 8b 00             	mov    (%rax),%rax
  405714:	48 31 c1             	xor    %rax,%rcx
  405717:	48 8b 45 d0          	mov    -0x30(%rbp),%rax
  40571b:	48 83 c0 28          	add    $0x28,%rax
  40571f:	48 8b 00             	mov    (%rax),%rax
  405722:	48 31 c1             	xor    %rax,%rcx
  405725:	48 8b 45 d0          	mov    -0x30(%rbp),%rax
  405729:	48 83 c0 20          	add    $0x20,%rax
  40572d:	48 8b 00             	mov    (%rax),%rax
  405730:	48 31 c1             	xor    %rax,%rcx
  405733:	48 8b 45 d0          	mov    -0x30(%rbp),%rax
  405737:	48 83 c0 10          	add    $0x10,%rax
  40573b:	48 8b 00             	mov    (%rax),%rax
  40573e:	48 31 c1             	xor    %rax,%rcx
  405741:	48 8b 45 d0          	mov    -0x30(%rbp),%rax
  405745:	48 83 c0 68          	add    $0x68,%rax
  405749:	48 8b 00             	mov    (%rax),%rax
  40574c:	48 31 c1             	xor    %rax,%rcx
  40574f:	48 8b 45 d0          	mov    -0x30(%rbp),%rax
  405753:	48 83 c0 58          	add    $0x58,%rax
  405757:	48 8b 00             	mov    (%rax),%rax
  40575a:	48 31 c1             	xor    %rax,%rcx
  40575d:	48 8b 45 d0          	mov    -0x30(%rbp),%rax
  405761:	48 83 c0 50          	add    $0x50,%rax
  405765:	48 8b 00             	mov    (%rax),%rax
  405768:	48 31 c8             	xor    %rcx,%rax
  40576b:	48 33 45 f0          	xor    -0x10(%rbp),%rax
  40576f:	48 33 45 f8          	xor    -0x8(%rbp),%rax
  405773:	48 89 02             	mov    %rax,(%rdx)
  405776:	48 8b 45 d8          	mov    -0x28(%rbp),%rax
  40577a:	48 8d 90 f0 00 00 00 	lea    0xf0(%rax),%rdx
  405781:	48 8b 45 d0          	mov    -0x30(%rbp),%rax
  405785:	48 05 b0 00 00 00    	add    $0xb0,%rax
  40578b:	48 8b 08             	mov    (%rax),%rcx
  40578e:	48 8b 45 d0          	mov    -0x30(%rbp),%rax
  405792:	48 05 98 00 00 00    	add    $0x98,%rax
  405798:	48 8b 00             	mov    (%rax),%rax
  40579b:	48 31 c1             	xor    %rax,%rcx
  40579e:	48 8b 45 d0          	mov    -0x30(%rbp),%rax
  4057a2:	48 05 e8 00 00 00    	add    $0xe8,%rax
  4057a8:	48 8b 00             	mov    (%rax),%rax
  4057ab:	48 31 c1             	xor    %rax,%rcx
  4057ae:	48 8b 45 d0          	mov    -0x30(%rbp),%rax
  4057b2:	48 05 e0 00 00 00    	add    $0xe0,%rax
  4057b8:	48 8b 00             	mov    (%rax),%rax
  4057bb:	48 31 c1             	xor    %rax,%rcx
  4057be:	48 8b 45 d0          	mov    -0x30(%rbp),%rax
  4057c2:	48 05 d8 00 00 00    	add    $0xd8,%rax
  4057c8:	48 8b 00             	mov    (%rax),%rax
  4057cb:	48 31 c1             	xor    %rax,%rcx
  4057ce:	48 8b 45 d0          	mov    -0x30(%rbp),%rax
  4057d2:	48 83 c0 30          	add    $0x30,%rax
  4057d6:	48 8b 00             	mov    (%rax),%rax
  4057d9:	48 31 c1             	xor    %rax,%rcx
  4057dc:	48 8b 45 d0          	mov    -0x30(%rbp),%rax
  4057e0:	48 83 c0 28          	add    $0x28,%rax
  4057e4:	48 8b 00             	mov    (%rax),%rax
  4057e7:	48 31 c1             	xor    %rax,%rcx
  4057ea:	48 8b 45 d0          	mov    -0x30(%rbp),%rax
  4057ee:	48 83 c0 18          	add    $0x18,%rax
  4057f2:	48 8b 00             	mov    (%rax),%rax
  4057f5:	48 31 c1             	xor    %rax,%rcx
  4057f8:	48 8b 45 d0          	mov    -0x30(%rbp),%rax
  4057fc:	48 83 c0 70          	add    $0x70,%rax
  405800:	48 8b 00             	mov    (%rax),%rax
  405803:	48 31 c1             	xor    %rax,%rcx
  405806:	48 8b 45 d0          	mov    -0x30(%rbp),%rax
  40580a:	48 83 c0 60          	add    $0x60,%rax
  40580e:	48 8b 00             	mov    (%rax),%rax
  405811:	48 31 c1             	xor    %rax,%rcx
  405814:	48 8b 45 d0          	mov    -0x30(%rbp),%rax
  405818:	48 83 c0 58          	add    $0x58,%rax
  40581c:	48 8b 00             	mov    (%rax),%rax
  40581f:	48 31 c8             	xor    %rcx,%rax
  405822:	48 33 45 f8          	xor    -0x8(%rbp),%rax
  405826:	48 89 02             	mov    %rax,(%rdx)
  405829:	48 8b 45 d8          	mov    -0x28(%rbp),%rax
  40582d:	48 05 f8 00 00 00    	add    $0xf8,%rax
  405833:	48 8b 55 d0          	mov    -0x30(%rbp),%rdx
  405837:	48 81 c2 b8 00 00 00 	add    $0xb8,%rdx
  40583e:	48 8b 0a             	mov    (%rdx),%rcx
  405841:	48 8b 55 d0          	mov    -0x30(%rbp),%rdx
  405845:	48 81 c2 a0 00 00 00 	add    $0xa0,%rdx
  40584c:	48 8b 12             	mov    (%rdx),%rdx
  40584f:	48 31 d1             	xor    %rdx,%rcx
  405852:	48 8b 55 d0          	mov    -0x30(%rbp),%rdx
  405856:	48 81 c2 f0 00 00 00 	add    $0xf0,%rdx
  40585d:	48 8b 12             	mov    (%rdx),%rdx
  405860:	48 31 d1             	xor    %rdx,%rcx
  405863:	48 8b 55 d0          	mov    -0x30(%rbp),%rdx
  405867:	48 81 c2 e8 00 00 00 	add    $0xe8,%rdx
  40586e:	48 8b 12             	mov    (%rdx),%rdx
  405871:	48 31 d1             	xor    %rdx,%rcx
  405874:	48 8b 55 d0          	mov    -0x30(%rbp),%rdx
  405878:	48 81 c2 e0 00 00 00 	add    $0xe0,%rdx
  40587f:	48 8b 12             	mov    (%rdx),%rdx
  405882:	48 31 d1             	xor    %rdx,%rcx
  405885:	48 8b 55 d0          	mov    -0x30(%rbp),%rdx
  405889:	48 83 c2 38          	add    $0x38,%rdx
  40588d:	48 8b 12             	mov    (%rdx),%rdx
  405890:	48 31 d1             	xor    %rdx,%rcx
  405893:	48 8b 55 d0          	mov    -0x30(%rbp),%rdx
  405897:	48 83 c2 30          	add    $0x30,%rdx
  40589b:	48 8b 12             	mov    (%rdx),%rdx
  40589e:	48 31 d1             	xor    %rdx,%rcx
  4058a1:	48 8b 55 d0          	mov    -0x30(%rbp),%rdx
  4058a5:	48 83 c2 20          	add    $0x20,%rdx
  4058a9:	48 8b 12             	mov    (%rdx),%rdx
  4058ac:	48 31 d1             	xor    %rdx,%rcx
  4058af:	48 8b 55 d0          	mov    -0x30(%rbp),%rdx
  4058b3:	48 83 c2 78          	add    $0x78,%rdx
  4058b7:	48 8b 12             	mov    (%rdx),%rdx
  4058ba:	48 31 d1             	xor    %rdx,%rcx
  4058bd:	48 8b 55 d0          	mov    -0x30(%rbp),%rdx
  4058c1:	48 83 c2 68          	add    $0x68,%rdx
  4058c5:	48 8b 12             	mov    (%rdx),%rdx
  4058c8:	48 31 d1             	xor    %rdx,%rcx
  4058cb:	48 8b 55 d0          	mov    -0x30(%rbp),%rdx
  4058cf:	48 83 c2 60          	add    $0x60,%rdx
  4058d3:	48 8b 12             	mov    (%rdx),%rdx
  4058d6:	48 31 ca             	xor    %rcx,%rdx
  4058d9:	48 89 10             	mov    %rdx,(%rax)
  4058dc:	48 81 45 d8 00 01 00 	addq   $0x100,-0x28(%rbp)
  4058e3:	00 
  4058e4:	48 81 45 d0 00 01 00 	addq   $0x100,-0x30(%rbp)
  4058eb:	00 
  4058ec:	83 45 e4 08          	addl   $0x8,-0x1c(%rbp)
  4058f0:	83 7d e4 1f          	cmpl   $0x1f,-0x1c(%rbp)
  4058f4:	0f 8e 4d e9 ff ff    	jle    404247 <bs_mixcolumns_rev+0x18>
  4058fa:	5d                   	pop    %rbp
  4058fb:	c3                   	retq   

00000000004058fc <hex_dump>:
  4058fc:	55                   	push   %rbp
  4058fd:	48 89 e5             	mov    %rsp,%rbp
  405900:	48 83 ec 10          	sub    $0x10,%rsp
  405904:	48 89 7d f8          	mov    %rdi,-0x8(%rbp)
  405908:	89 75 f4             	mov    %esi,-0xc(%rbp)
  40590b:	eb 23                	jmp    405930 <hex_dump+0x34>
  40590d:	48 8b 45 f8          	mov    -0x8(%rbp),%rax
  405911:	48 8d 50 01          	lea    0x1(%rax),%rdx
  405915:	48 89 55 f8          	mov    %rdx,-0x8(%rbp)
  405919:	0f b6 00             	movzbl (%rax),%eax
  40591c:	0f b6 c0             	movzbl %al,%eax
  40591f:	89 c6                	mov    %eax,%esi
  405921:	bf e4 63 40 00       	mov    $0x4063e4,%edi
  405926:	b8 00 00 00 00       	mov    $0x0,%eax
  40592b:	e8 20 ac ff ff       	callq  400550 <printf@plt>
  405930:	8b 45 f4             	mov    -0xc(%rbp),%eax
  405933:	8d 50 ff             	lea    -0x1(%rax),%edx
  405936:	89 55 f4             	mov    %edx,-0xc(%rbp)
  405939:	85 c0                	test   %eax,%eax
  40593b:	75 d0                	jne    40590d <hex_dump+0x11>
  40593d:	bf 0a 00 00 00       	mov    $0xa,%edi
  405942:	e8 d9 ab ff ff       	callq  400520 <putchar@plt>
  405947:	c9                   	leaveq 
  405948:	c3                   	retq   

0000000000405949 <word_dump>:
  405949:	55                   	push   %rbp
  40594a:	48 89 e5             	mov    %rsp,%rbp
  40594d:	48 83 ec 10          	sub    $0x10,%rsp
  405951:	48 89 7d f8          	mov    %rdi,-0x8(%rbp)
  405955:	89 75 f4             	mov    %esi,-0xc(%rbp)
  405958:	eb 21                	jmp    40597b <word_dump+0x32>
  40595a:	48 8b 45 f8          	mov    -0x8(%rbp),%rax
  40595e:	48 8d 50 08          	lea    0x8(%rax),%rdx
  405962:	48 89 55 f8          	mov    %rdx,-0x8(%rbp)
  405966:	48 8b 00             	mov    (%rax),%rax
  405969:	48 89 c6             	mov    %rax,%rsi
  40596c:	bf eb 63 40 00       	mov    $0x4063eb,%edi
  405971:	b8 00 00 00 00       	mov    $0x0,%eax
  405976:	e8 d5 ab ff ff       	callq  400550 <printf@plt>
  40597b:	8b 45 f4             	mov    -0xc(%rbp),%eax
  40597e:	8d 50 ff             	lea    -0x1(%rax),%edx
  405981:	89 55 f4             	mov    %edx,-0xc(%rbp)
  405984:	85 c0                	test   %eax,%eax
  405986:	75 d2                	jne    40595a <word_dump+0x11>
  405988:	bf 0a 00 00 00       	mov    $0xa,%edi
  40598d:	e8 8e ab ff ff       	callq  400520 <putchar@plt>
  405992:	c9                   	leaveq 
  405993:	c3                   	retq   

0000000000405994 <test_transpose>:
  405994:	55                   	push   %rbp
  405995:	48 89 e5             	mov    %rsp,%rbp
  405998:	48 81 ec 10 08 00 00 	sub    $0x810,%rsp
  40599f:	64 48 8b 04 25 28 00 	mov    %fs:0x28,%rax
  4059a6:	00 00 
  4059a8:	48 89 45 f8          	mov    %rax,-0x8(%rbp)
  4059ac:	31 c0                	xor    %eax,%eax
  4059ae:	48 8d 85 f0 f7 ff ff 	lea    -0x810(%rbp),%rax
  4059b5:	ba 00 04 00 00       	mov    $0x400,%edx
  4059ba:	be 00 00 00 00       	mov    $0x0,%esi
  4059bf:	48 89 c7             	mov    %rax,%rdi
  4059c2:	e8 99 ab ff ff       	callq  400560 <memset@plt>
  4059c7:	48 8d 85 f0 fb ff ff 	lea    -0x410(%rbp),%rax
  4059ce:	ba 00 04 00 00       	mov    $0x400,%edx
  4059d3:	be 00 00 00 00       	mov    $0x0,%esi
  4059d8:	48 89 c7             	mov    %rax,%rdi
  4059db:	e8 80 ab ff ff       	callq  400560 <memset@plt>
  4059e0:	48 8d 85 f0 f7 ff ff 	lea    -0x810(%rbp),%rax
  4059e7:	be c0 70 60 00       	mov    $0x6070c0,%esi
  4059ec:	48 89 c7             	mov    %rax,%rdi
  4059ef:	e8 07 c3 ff ff       	callq  401cfb <bs_transpose>
  4059f4:	48 8d 95 f0 f7 ff ff 	lea    -0x810(%rbp),%rdx
  4059fb:	48 8d 85 f0 fb ff ff 	lea    -0x410(%rbp),%rax
  405a02:	48 89 d6             	mov    %rdx,%rsi
  405a05:	48 89 c7             	mov    %rax,%rdi
  405a08:	e8 d9 c3 ff ff       	callq  401de6 <bs_transpose_rev>
  405a0d:	bf f3 63 40 00       	mov    $0x4063f3,%edi
  405a12:	e8 19 ab ff ff       	callq  400530 <puts@plt>
  405a17:	be 80 00 00 00       	mov    $0x80,%esi
  405a1c:	bf c0 70 60 00       	mov    $0x6070c0,%edi
  405a21:	e8 23 ff ff ff       	callq  405949 <word_dump>
  405a26:	bf 07 64 40 00       	mov    $0x406407,%edi
  405a2b:	e8 00 ab ff ff       	callq  400530 <puts@plt>
  405a30:	48 8d 85 f0 f7 ff ff 	lea    -0x810(%rbp),%rax
  405a37:	be 80 00 00 00       	mov    $0x80,%esi
  405a3c:	48 89 c7             	mov    %rax,%rdi
  405a3f:	e8 05 ff ff ff       	callq  405949 <word_dump>
  405a44:	bf 19 64 40 00       	mov    $0x406419,%edi
  405a49:	e8 e2 aa ff ff       	callq  400530 <puts@plt>
  405a4e:	48 8d 85 f0 fb ff ff 	lea    -0x410(%rbp),%rax
  405a55:	be 80 00 00 00       	mov    $0x80,%esi
  405a5a:	48 89 c7             	mov    %rax,%rdi
  405a5d:	e8 e7 fe ff ff       	callq  405949 <word_dump>
  405a62:	48 8b 45 f8          	mov    -0x8(%rbp),%rax
  405a66:	64 48 33 04 25 28 00 	xor    %fs:0x28,%rax
  405a6d:	00 00 
  405a6f:	74 05                	je     405a76 <test_transpose+0xe2>
  405a71:	e8 ca aa ff ff       	callq  400540 <__stack_chk_fail@plt>
  405a76:	c9                   	leaveq 
  405a77:	c3                   	retq   

0000000000405a78 <test_sbox>:
  405a78:	55                   	push   %rbp
  405a79:	48 89 e5             	mov    %rsp,%rbp
  405a7c:	48 81 ec a0 00 00 00 	sub    $0xa0,%rsp
  405a83:	64 48 8b 04 25 28 00 	mov    %fs:0x28,%rax
  405a8a:	00 00 
  405a8c:	48 89 45 f8          	mov    %rax,-0x8(%rbp)
  405a90:	31 c0                	xor    %eax,%eax
  405a92:	48 c7 85 68 ff ff ff 	movq   $0x6070c0,-0x98(%rbp)
  405a99:	c0 70 60 00 
  405a9d:	c7 85 64 ff ff ff 07 	movl   $0x7,-0x9c(%rbp)
  405aa4:	00 00 00 
  405aa7:	bf 2c 64 40 00       	mov    $0x40642c,%edi
  405aac:	e8 7f aa ff ff       	callq  400530 <puts@plt>
  405ab1:	48 8b 85 68 ff ff ff 	mov    -0x98(%rbp),%rax
  405ab8:	be 08 00 00 00       	mov    $0x8,%esi
  405abd:	48 89 c7             	mov    %rax,%rdi
  405ac0:	e8 84 fe ff ff       	callq  405949 <word_dump>
  405ac5:	48 8b 95 68 ff ff ff 	mov    -0x98(%rbp),%rdx
  405acc:	48 8d 85 70 ff ff ff 	lea    -0x90(%rbp),%rax
  405ad3:	48 89 d6             	mov    %rdx,%rsi
  405ad6:	48 89 c7             	mov    %rax,%rdi
  405ad9:	e8 e5 b6 ff ff       	callq  4011c3 <bs_sbox>
  405ade:	bf 38 64 40 00       	mov    $0x406438,%edi
  405ae3:	e8 48 aa ff ff       	callq  400530 <puts@plt>
  405ae8:	48 8d 85 70 ff ff ff 	lea    -0x90(%rbp),%rax
  405aef:	be 08 00 00 00       	mov    $0x8,%esi
  405af4:	48 89 c7             	mov    %rax,%rdi
  405af7:	e8 4d fe ff ff       	callq  405949 <word_dump>
  405afc:	48 8d 95 70 ff ff ff 	lea    -0x90(%rbp),%rdx
  405b03:	48 8d 45 b0          	lea    -0x50(%rbp),%rax
  405b07:	48 89 d6             	mov    %rdx,%rsi
  405b0a:	48 89 c7             	mov    %rax,%rdi
  405b0d:	e8 74 ab ff ff       	callq  400686 <bs_sbox_rev>
  405b12:	bf 45 64 40 00       	mov    $0x406445,%edi
  405b17:	e8 14 aa ff ff       	callq  400530 <puts@plt>
  405b1c:	48 8d 45 b0          	lea    -0x50(%rbp),%rax
  405b20:	be 08 00 00 00       	mov    $0x8,%esi
  405b25:	48 89 c7             	mov    %rax,%rdi
  405b28:	e8 1c fe ff ff       	callq  405949 <word_dump>
  405b2d:	48 8b 45 f8          	mov    -0x8(%rbp),%rax
  405b31:	64 48 33 04 25 28 00 	xor    %fs:0x28,%rax
  405b38:	00 00 
  405b3a:	74 05                	je     405b41 <test_sbox+0xc9>
  405b3c:	e8 ff a9 ff ff       	callq  400540 <__stack_chk_fail@plt>
  405b41:	c9                   	leaveq 
  405b42:	c3                   	retq   

0000000000405b43 <test_mixcolumns>:
  405b43:	55                   	push   %rbp
  405b44:	48 89 e5             	mov    %rsp,%rbp
  405b47:	48 81 ec 10 08 00 00 	sub    $0x810,%rsp
  405b4e:	64 48 8b 04 25 28 00 	mov    %fs:0x28,%rax
  405b55:	00 00 
  405b57:	48 89 45 f8          	mov    %rax,-0x8(%rbp)
  405b5b:	31 c0                	xor    %eax,%eax
  405b5d:	48 8d 85 f0 f7 ff ff 	lea    -0x810(%rbp),%rax
  405b64:	be c0 70 60 00       	mov    $0x6070c0,%esi
  405b69:	ba 80 00 00 00       	mov    $0x80,%edx
  405b6e:	48 89 c7             	mov    %rax,%rdi
  405b71:	48 89 d1             	mov    %rdx,%rcx
  405b74:	f3 48 a5             	rep movsq %ds:(%rsi),%es:(%rdi)
  405b77:	bf 53 64 40 00       	mov    $0x406453,%edi
  405b7c:	e8 af a9 ff ff       	callq  400530 <puts@plt>
  405b81:	48 8d 85 f0 f7 ff ff 	lea    -0x810(%rbp),%rax
  405b88:	be 80 00 00 00       	mov    $0x80,%esi
  405b8d:	48 89 c7             	mov    %rax,%rdi
  405b90:	e8 b4 fd ff ff       	callq  405949 <word_dump>
  405b95:	48 8d 95 f0 f7 ff ff 	lea    -0x810(%rbp),%rdx
  405b9c:	48 8d 85 f0 fb ff ff 	lea    -0x410(%rbp),%rax
  405ba3:	48 89 d6             	mov    %rdx,%rsi
  405ba6:	48 89 c7             	mov    %rax,%rdi
  405ba9:	e8 74 db ff ff       	callq  403722 <bs_mixcolumns>
  405bae:	bf 65 64 40 00       	mov    $0x406465,%edi
  405bb3:	e8 78 a9 ff ff       	callq  400530 <puts@plt>
  405bb8:	48 8d 85 f0 fb ff ff 	lea    -0x410(%rbp),%rax
  405bbf:	be 80 00 00 00       	mov    $0x80,%esi
  405bc4:	48 89 c7             	mov    %rax,%rdi
  405bc7:	e8 7d fd ff ff       	callq  405949 <word_dump>
  405bcc:	48 8d 85 f0 f7 ff ff 	lea    -0x810(%rbp),%rax
  405bd3:	ba 00 04 00 00       	mov    $0x400,%edx
  405bd8:	be 00 00 00 00       	mov    $0x0,%esi
  405bdd:	48 89 c7             	mov    %rax,%rdi
  405be0:	e8 7b a9 ff ff       	callq  400560 <memset@plt>
  405be5:	48 8d 95 f0 fb ff ff 	lea    -0x410(%rbp),%rdx
  405bec:	48 8d 85 f0 f7 ff ff 	lea    -0x810(%rbp),%rax
  405bf3:	48 89 d6             	mov    %rdx,%rsi
  405bf6:	48 89 c7             	mov    %rax,%rdi
  405bf9:	b8 00 00 00 00       	mov    $0x0,%eax
  405bfe:	e8 2c e6 ff ff       	callq  40422f <bs_mixcolumns_rev>
  405c03:	bf 78 64 40 00       	mov    $0x406478,%edi
  405c08:	e8 23 a9 ff ff       	callq  400530 <puts@plt>
  405c0d:	48 8d 85 f0 f7 ff ff 	lea    -0x810(%rbp),%rax
  405c14:	be 80 00 00 00       	mov    $0x80,%esi
  405c19:	48 89 c7             	mov    %rax,%rdi
  405c1c:	e8 28 fd ff ff       	callq  405949 <word_dump>
  405c21:	48 8b 45 f8          	mov    -0x8(%rbp),%rax
  405c25:	64 48 33 04 25 28 00 	xor    %fs:0x28,%rax
  405c2c:	00 00 
  405c2e:	74 05                	je     405c35 <test_mixcolumns+0xf2>
  405c30:	e8 0b a9 ff ff       	callq  400540 <__stack_chk_fail@plt>
  405c35:	c9                   	leaveq 
  405c36:	c3                   	retq   

0000000000405c37 <test_shiftrows>:
  405c37:	55                   	push   %rbp
  405c38:	48 89 e5             	mov    %rsp,%rbp
  405c3b:	48 81 ec 10 08 00 00 	sub    $0x810,%rsp
  405c42:	64 48 8b 04 25 28 00 	mov    %fs:0x28,%rax
  405c49:	00 00 
  405c4b:	48 89 45 f8          	mov    %rax,-0x8(%rbp)
  405c4f:	31 c0                	xor    %eax,%eax
  405c51:	48 8d 85 f0 f7 ff ff 	lea    -0x810(%rbp),%rax
  405c58:	be c0 70 60 00       	mov    $0x6070c0,%esi
  405c5d:	ba 80 00 00 00       	mov    $0x80,%edx
  405c62:	48 89 c7             	mov    %rax,%rdi
  405c65:	48 89 d1             	mov    %rdx,%rcx
  405c68:	f3 48 a5             	rep movsq %ds:(%rsi),%es:(%rdi)
  405c6b:	bf 8c 64 40 00       	mov    $0x40648c,%edi
  405c70:	e8 bb a8 ff ff       	callq  400530 <puts@plt>
  405c75:	48 8d 85 f0 f7 ff ff 	lea    -0x810(%rbp),%rax
  405c7c:	be 80 00 00 00       	mov    $0x80,%esi
  405c81:	48 89 c7             	mov    %rax,%rdi
  405c84:	e8 c0 fc ff ff       	callq  405949 <word_dump>
  405c89:	48 8d 95 f0 f7 ff ff 	lea    -0x810(%rbp),%rdx
  405c90:	48 8d 85 f0 fb ff ff 	lea    -0x410(%rbp),%rax
  405c97:	48 89 d6             	mov    %rdx,%rsi
  405c9a:	48 89 c7             	mov    %rax,%rdi
  405c9d:	e8 2e c2 ff ff       	callq  401ed0 <bs_shiftrows>
  405ca2:	bf 9d 64 40 00       	mov    $0x40649d,%edi
  405ca7:	e8 84 a8 ff ff       	callq  400530 <puts@plt>
  405cac:	48 8d 85 f0 fb ff ff 	lea    -0x410(%rbp),%rax
  405cb3:	be 80 00 00 00       	mov    $0x80,%esi
  405cb8:	48 89 c7             	mov    %rax,%rdi
  405cbb:	e8 89 fc ff ff       	callq  405949 <word_dump>
  405cc0:	48 8d 85 f0 f7 ff ff 	lea    -0x810(%rbp),%rax
  405cc7:	ba 00 04 00 00       	mov    $0x400,%edx
  405ccc:	be 00 00 00 00       	mov    $0x0,%esi
  405cd1:	48 89 c7             	mov    %rax,%rdi
  405cd4:	e8 87 a8 ff ff       	callq  400560 <memset@plt>
  405cd9:	48 8d 95 f0 fb ff ff 	lea    -0x410(%rbp),%rdx
  405ce0:	48 8d 85 f0 f7 ff ff 	lea    -0x810(%rbp),%rax
  405ce7:	48 89 d6             	mov    %rdx,%rsi
  405cea:	48 89 c7             	mov    %rax,%rdi
  405ced:	e8 07 ce ff ff       	callq  402af9 <bs_shiftrows_rev>
  405cf2:	bf af 64 40 00       	mov    $0x4064af,%edi
  405cf7:	e8 34 a8 ff ff       	callq  400530 <puts@plt>
  405cfc:	48 8d 85 f0 f7 ff ff 	lea    -0x810(%rbp),%rax
  405d03:	be 80 00 00 00       	mov    $0x80,%esi
  405d08:	48 89 c7             	mov    %rax,%rdi
  405d0b:	e8 39 fc ff ff       	callq  405949 <word_dump>
  405d10:	48 8b 45 f8          	mov    -0x8(%rbp),%rax
  405d14:	64 48 33 04 25 28 00 	xor    %fs:0x28,%rax
  405d1b:	00 00 
  405d1d:	74 05                	je     405d24 <test_shiftrows+0xed>
  405d1f:	e8 1c a8 ff ff       	callq  400540 <__stack_chk_fail@plt>
  405d24:	c9                   	leaveq 
  405d25:	c3                   	retq   

0000000000405d26 <bs_addroundkey>:
  405d26:	55                   	push   %rbp
  405d27:	48 89 e5             	mov    %rsp,%rbp
  405d2a:	48 89 7d e8          	mov    %rdi,-0x18(%rbp)
  405d2e:	48 89 75 e0          	mov    %rsi,-0x20(%rbp)
  405d32:	c7 45 fc 00 00 00 00 	movl   $0x0,-0x4(%rbp)
  405d39:	eb 4e                	jmp    405d89 <bs_addroundkey+0x63>
  405d3b:	8b 45 fc             	mov    -0x4(%rbp),%eax
  405d3e:	48 98                	cltq   
  405d40:	48 8d 14 c5 00 00 00 	lea    0x0(,%rax,8),%rdx
  405d47:	00 
  405d48:	48 8b 45 e8          	mov    -0x18(%rbp),%rax
  405d4c:	48 01 d0             	add    %rdx,%rax
  405d4f:	8b 55 fc             	mov    -0x4(%rbp),%edx
  405d52:	48 63 d2             	movslq %edx,%rdx
  405d55:	48 8d 0c d5 00 00 00 	lea    0x0(,%rdx,8),%rcx
  405d5c:	00 
  405d5d:	48 8b 55 e8          	mov    -0x18(%rbp),%rdx
  405d61:	48 01 ca             	add    %rcx,%rdx
  405d64:	48 8b 0a             	mov    (%rdx),%rcx
  405d67:	8b 55 fc             	mov    -0x4(%rbp),%edx
  405d6a:	48 63 d2             	movslq %edx,%rdx
  405d6d:	48 8d 34 d5 00 00 00 	lea    0x0(,%rdx,8),%rsi
  405d74:	00 
  405d75:	48 8b 55 e0          	mov    -0x20(%rbp),%rdx
  405d79:	48 01 f2             	add    %rsi,%rdx
  405d7c:	48 8b 12             	mov    (%rdx),%rdx
  405d7f:	48 31 ca             	xor    %rcx,%rdx
  405d82:	48 89 10             	mov    %rdx,(%rax)
  405d85:	83 45 fc 01          	addl   $0x1,-0x4(%rbp)
  405d89:	83 7d fc 7f          	cmpl   $0x7f,-0x4(%rbp)
  405d8d:	7e ac                	jle    405d3b <bs_addroundkey+0x15>
  405d8f:	5d                   	pop    %rbp
  405d90:	c3                   	retq   

0000000000405d91 <bs_apply_sbox>:
  405d91:	55                   	push   %rbp
  405d92:	48 89 e5             	mov    %rsp,%rbp
  405d95:	48 83 ec 20          	sub    $0x20,%rsp
  405d99:	48 89 7d e8          	mov    %rdi,-0x18(%rbp)
  405d9d:	48 89 75 e0          	mov    %rsi,-0x20(%rbp)
  405da1:	c7 45 fc 00 00 00 00 	movl   $0x0,-0x4(%rbp)
  405da8:	eb 37                	jmp    405de1 <bs_apply_sbox+0x50>
  405daa:	8b 45 fc             	mov    -0x4(%rbp),%eax
  405dad:	48 98                	cltq   
  405daf:	48 8d 14 c5 00 00 00 	lea    0x0(,%rax,8),%rdx
  405db6:	00 
  405db7:	48 8b 45 e0          	mov    -0x20(%rbp),%rax
  405dbb:	48 01 c2             	add    %rax,%rdx
  405dbe:	8b 45 fc             	mov    -0x4(%rbp),%eax
  405dc1:	48 98                	cltq   
  405dc3:	48 8d 0c c5 00 00 00 	lea    0x0(,%rax,8),%rcx
  405dca:	00 
  405dcb:	48 8b 45 e8          	mov    -0x18(%rbp),%rax
  405dcf:	48 01 c8             	add    %rcx,%rax
  405dd2:	48 89 d6             	mov    %rdx,%rsi
  405dd5:	48 89 c7             	mov    %rax,%rdi
  405dd8:	e8 e6 b3 ff ff       	callq  4011c3 <bs_sbox>
  405ddd:	83 45 fc 08          	addl   $0x8,-0x4(%rbp)
  405de1:	83 7d fc 7f          	cmpl   $0x7f,-0x4(%rbp)
  405de5:	7e c3                	jle    405daa <bs_apply_sbox+0x19>
  405de7:	c9                   	leaveq 
  405de8:	c3                   	retq   

0000000000405de9 <bs_apply_sbox_rev>:
  405de9:	55                   	push   %rbp
  405dea:	48 89 e5             	mov    %rsp,%rbp
  405ded:	48 83 ec 20          	sub    $0x20,%rsp
  405df1:	48 89 7d e8          	mov    %rdi,-0x18(%rbp)
  405df5:	48 89 75 e0          	mov    %rsi,-0x20(%rbp)
  405df9:	c7 45 fc 00 00 00 00 	movl   $0x0,-0x4(%rbp)
  405e00:	eb 37                	jmp    405e39 <bs_apply_sbox_rev+0x50>
  405e02:	8b 45 fc             	mov    -0x4(%rbp),%eax
  405e05:	48 98                	cltq   
  405e07:	48 8d 14 c5 00 00 00 	lea    0x0(,%rax,8),%rdx
  405e0e:	00 
  405e0f:	48 8b 45 e0          	mov    -0x20(%rbp),%rax
  405e13:	48 01 c2             	add    %rax,%rdx
  405e16:	8b 45 fc             	mov    -0x4(%rbp),%eax
  405e19:	48 98                	cltq   
  405e1b:	48 8d 0c c5 00 00 00 	lea    0x0(,%rax,8),%rcx
  405e22:	00 
  405e23:	48 8b 45 e8          	mov    -0x18(%rbp),%rax
  405e27:	48 01 c8             	add    %rcx,%rax
  405e2a:	48 89 d6             	mov    %rdx,%rsi
  405e2d:	48 89 c7             	mov    %rax,%rdi
  405e30:	e8 51 a8 ff ff       	callq  400686 <bs_sbox_rev>
  405e35:	83 45 fc 08          	addl   $0x8,-0x4(%rbp)
  405e39:	83 7d fc 7f          	cmpl   $0x7f,-0x4(%rbp)
  405e3d:	7e c3                	jle    405e02 <bs_apply_sbox_rev+0x19>
  405e3f:	c9                   	leaveq 
  405e40:	c3                   	retq   

0000000000405e41 <test_all_steps>:
  405e41:	55                   	push   %rbp
  405e42:	48 89 e5             	mov    %rsp,%rbp
  405e45:	48 81 ec 20 34 00 00 	sub    $0x3420,%rsp
  405e4c:	64 48 8b 04 25 28 00 	mov    %fs:0x28,%rax
  405e53:	00 00 
  405e55:	48 89 45 f8          	mov    %rax,-0x8(%rbp)
  405e59:	31 c0                	xor    %eax,%eax
  405e5b:	c7 85 ec cb ff ff 00 	movl   $0x0,-0x3414(%rbp)
  405e62:	00 00 00 
  405e65:	eb 34                	jmp    405e9b <test_all_steps+0x5a>
  405e67:	48 8d 85 f0 d3 ff ff 	lea    -0x2c10(%rbp),%rax
  405e6e:	8b 95 ec cb ff ff    	mov    -0x3414(%rbp),%edx
  405e74:	48 63 d2             	movslq %edx,%rdx
  405e77:	48 c1 e2 0a          	shl    $0xa,%rdx
  405e7b:	48 8d 0c 10          	lea    (%rax,%rdx,1),%rcx
  405e7f:	8b 85 ec cb ff ff    	mov    -0x3414(%rbp),%eax
  405e85:	ba 80 00 00 00       	mov    $0x80,%edx
  405e8a:	89 c6                	mov    %eax,%esi
  405e8c:	48 89 cf             	mov    %rcx,%rdi
  405e8f:	e8 cc a6 ff ff       	callq  400560 <memset@plt>
  405e94:	83 85 ec cb ff ff 01 	addl   $0x1,-0x3414(%rbp)
  405e9b:	83 bd ec cb ff ff 0a 	cmpl   $0xa,-0x3414(%rbp)
  405ea2:	7e c3                	jle    405e67 <test_all_steps+0x26>
  405ea4:	48 8d 85 f0 cb ff ff 	lea    -0x3410(%rbp),%rax
  405eab:	be c0 70 60 00       	mov    $0x6070c0,%esi
  405eb0:	ba 80 00 00 00       	mov    $0x80,%edx
  405eb5:	48 89 c7             	mov    %rax,%rdi
  405eb8:	48 89 d1             	mov    %rdx,%rcx
  405ebb:	f3 48 a5             	rep movsq %ds:(%rsi),%es:(%rdi)
  405ebe:	48 8d 95 f0 cb ff ff 	lea    -0x3410(%rbp),%rdx
  405ec5:	48 8d 85 f0 cf ff ff 	lea    -0x3010(%rbp),%rax
  405ecc:	48 89 d6             	mov    %rdx,%rsi
  405ecf:	48 89 c7             	mov    %rax,%rdi
  405ed2:	e8 ba fe ff ff       	callq  405d91 <bs_apply_sbox>
  405ed7:	48 8d 95 f0 cf ff ff 	lea    -0x3010(%rbp),%rdx
  405ede:	48 8d 85 f0 cb ff ff 	lea    -0x3410(%rbp),%rax
  405ee5:	48 89 d6             	mov    %rdx,%rsi
  405ee8:	48 89 c7             	mov    %rax,%rdi
  405eeb:	e8 f9 fe ff ff       	callq  405de9 <bs_apply_sbox_rev>
  405ef0:	48 8d 95 f0 cb ff ff 	lea    -0x3410(%rbp),%rdx
  405ef7:	48 8d 85 f0 cf ff ff 	lea    -0x3010(%rbp),%rax
  405efe:	48 89 d6             	mov    %rdx,%rsi
  405f01:	48 89 c7             	mov    %rax,%rdi
  405f04:	e8 c7 bf ff ff       	callq  401ed0 <bs_shiftrows>
  405f09:	48 8d 95 f0 cf ff ff 	lea    -0x3010(%rbp),%rdx
  405f10:	48 8d 85 f0 cb ff ff 	lea    -0x3410(%rbp),%rax
  405f17:	48 89 d6             	mov    %rdx,%rsi
  405f1a:	48 89 c7             	mov    %rax,%rdi
  405f1d:	e8 d7 cb ff ff       	callq  402af9 <bs_shiftrows_rev>
  405f22:	48 8d 95 f0 cb ff ff 	lea    -0x3410(%rbp),%rdx
  405f29:	48 8d 85 f0 cf ff ff 	lea    -0x3010(%rbp),%rax
  405f30:	48 89 d6             	mov    %rdx,%rsi
  405f33:	48 89 c7             	mov    %rax,%rdi
  405f36:	e8 e7 d7 ff ff       	callq  403722 <bs_mixcolumns>
  405f3b:	48 8d 95 f0 cf ff ff 	lea    -0x3010(%rbp),%rdx
  405f42:	48 8d 85 f0 cb ff ff 	lea    -0x3410(%rbp),%rax
  405f49:	48 89 d6             	mov    %rdx,%rsi
  405f4c:	48 89 c7             	mov    %rax,%rdi
  405f4f:	b8 00 00 00 00       	mov    $0x0,%eax
  405f54:	e8 d6 e2 ff ff       	callq  40422f <bs_mixcolumns_rev>
  405f59:	48 8d 85 f0 d3 ff ff 	lea    -0x2c10(%rbp),%rax
  405f60:	48 8d 90 00 14 00 00 	lea    0x1400(%rax),%rdx
  405f67:	48 8d 85 f0 cb ff ff 	lea    -0x3410(%rbp),%rax
  405f6e:	48 89 d6             	mov    %rdx,%rsi
  405f71:	48 89 c7             	mov    %rax,%rdi
  405f74:	e8 ad fd ff ff       	callq  405d26 <bs_addroundkey>
  405f79:	48 8d 85 f0 d3 ff ff 	lea    -0x2c10(%rbp),%rax
  405f80:	48 8d 90 00 14 00 00 	lea    0x1400(%rax),%rdx
  405f87:	48 8d 85 f0 cb ff ff 	lea    -0x3410(%rbp),%rax
  405f8e:	48 89 d6             	mov    %rdx,%rsi
  405f91:	48 89 c7             	mov    %rax,%rdi
  405f94:	e8 8d fd ff ff       	callq  405d26 <bs_addroundkey>
  405f99:	48 8d 85 f0 cf ff ff 	lea    -0x3010(%rbp),%rax
  405fa0:	48 8d 95 f0 cb ff ff 	lea    -0x3410(%rbp),%rdx
  405fa7:	b9 80 00 00 00       	mov    $0x80,%ecx
  405fac:	48 89 c7             	mov    %rax,%rdi
  405faf:	48 89 d6             	mov    %rdx,%rsi
  405fb2:	f3 48 a5             	rep movsq %ds:(%rsi),%es:(%rdi)
  405fb5:	bf c2 64 40 00       	mov    $0x4064c2,%edi
  405fba:	e8 71 a5 ff ff       	callq  400530 <puts@plt>
  405fbf:	48 8d 85 f0 cf ff ff 	lea    -0x3010(%rbp),%rax
  405fc6:	be 80 00 00 00       	mov    $0x80,%esi
  405fcb:	48 89 c7             	mov    %rax,%rdi
  405fce:	e8 76 f9 ff ff       	callq  405949 <word_dump>
  405fd3:	48 8b 45 f8          	mov    -0x8(%rbp),%rax
  405fd7:	64 48 33 04 25 28 00 	xor    %fs:0x28,%rax
  405fde:	00 00 
  405fe0:	74 05                	je     405fe7 <test_all_steps+0x1a6>
  405fe2:	e8 59 a5 ff ff       	callq  400540 <__stack_chk_fail@plt>
  405fe7:	c9                   	leaveq 
  405fe8:	c3                   	retq   

0000000000405fe9 <test_aes>:
  405fe9:	55                   	push   %rbp
  405fea:	48 89 e5             	mov    %rsp,%rbp
  405fed:	48 81 ec 20 34 00 00 	sub    $0x3420,%rsp
  405ff4:	64 48 8b 04 25 28 00 	mov    %fs:0x28,%rax
  405ffb:	00 00 
  405ffd:	48 89 45 f8          	mov    %rax,-0x8(%rbp)
  406001:	31 c0                	xor    %eax,%eax
  406003:	c7 85 e8 cb ff ff 01 	movl   $0x1,-0x3418(%rbp)
  40600a:	00 00 00 
  40600d:	eb 34                	jmp    406043 <test_aes+0x5a>
  40600f:	48 8d 85 f0 d3 ff ff 	lea    -0x2c10(%rbp),%rax
  406016:	8b 95 e8 cb ff ff    	mov    -0x3418(%rbp),%edx
  40601c:	48 63 d2             	movslq %edx,%rdx
  40601f:	48 c1 e2 0a          	shl    $0xa,%rdx
  406023:	48 8d 0c 10          	lea    (%rax,%rdx,1),%rcx
  406027:	8b 85 e8 cb ff ff    	mov    -0x3418(%rbp),%eax
  40602d:	ba 80 00 00 00       	mov    $0x80,%edx
  406032:	89 c6                	mov    %eax,%esi
  406034:	48 89 cf             	mov    %rcx,%rdi
  406037:	e8 24 a5 ff ff       	callq  400560 <memset@plt>
  40603c:	83 85 e8 cb ff ff 01 	addl   $0x1,-0x3418(%rbp)
  406043:	83 bd e8 cb ff ff 0a 	cmpl   $0xa,-0x3418(%rbp)
  40604a:	7e c3                	jle    40600f <test_aes+0x26>
  40604c:	48 8d 85 f0 d3 ff ff 	lea    -0x2c10(%rbp),%rax
  406053:	ba 80 00 00 00       	mov    $0x80,%edx
  406058:	be 23 01 00 00       	mov    $0x123,%esi
  40605d:	48 89 c7             	mov    %rax,%rdi
  406060:	e8 fb a4 ff ff       	callq  400560 <memset@plt>
  406065:	48 8d 85 f0 cb ff ff 	lea    -0x3410(%rbp),%rax
  40606c:	be c0 70 60 00       	mov    $0x6070c0,%esi
  406071:	ba 80 00 00 00       	mov    $0x80,%edx
  406076:	48 89 c7             	mov    %rax,%rdi
  406079:	48 89 d1             	mov    %rdx,%rcx
  40607c:	f3 48 a5             	rep movsq %ds:(%rsi),%es:(%rdi)
  40607f:	48 8d 85 f0 cf ff ff 	lea    -0x3010(%rbp),%rax
  406086:	ba 00 04 00 00       	mov    $0x400,%edx
  40608b:	be 00 00 00 00       	mov    $0x0,%esi
  406090:	48 89 c7             	mov    %rax,%rdi
  406093:	e8 c8 a4 ff ff       	callq  400560 <memset@plt>
  406098:	bf d4 64 40 00       	mov    $0x4064d4,%edi
  40609d:	e8 8e a4 ff ff       	callq  400530 <puts@plt>
  4060a2:	48 8d 85 f0 cb ff ff 	lea    -0x3410(%rbp),%rax
  4060a9:	be 80 00 00 00       	mov    $0x80,%esi
  4060ae:	48 89 c7             	mov    %rax,%rdi
  4060b1:	e8 93 f8 ff ff       	callq  405949 <word_dump>
  4060b6:	48 8d 95 f0 d3 ff ff 	lea    -0x2c10(%rbp),%rdx
  4060bd:	48 8d 85 f0 cb ff ff 	lea    -0x3410(%rbp),%rax
  4060c4:	48 89 d6             	mov    %rdx,%rsi
  4060c7:	48 89 c7             	mov    %rax,%rdi
  4060ca:	e8 57 fc ff ff       	callq  405d26 <bs_addroundkey>
  4060cf:	c7 85 ec cb ff ff 01 	movl   $0x1,-0x3414(%rbp)
  4060d6:	00 00 00 
  4060d9:	e9 97 00 00 00       	jmpq   406175 <test_aes+0x18c>
  4060de:	48 8d 95 f0 cb ff ff 	lea    -0x3410(%rbp),%rdx
  4060e5:	48 8d 85 f0 cf ff ff 	lea    -0x3010(%rbp),%rax
  4060ec:	48 89 d6             	mov    %rdx,%rsi
  4060ef:	48 89 c7             	mov    %rax,%rdi
  4060f2:	e8 9a fc ff ff       	callq  405d91 <bs_apply_sbox>
  4060f7:	48 8d 95 f0 cf ff ff 	lea    -0x3010(%rbp),%rdx
  4060fe:	48 8d 85 f0 cb ff ff 	lea    -0x3410(%rbp),%rax
  406105:	48 89 d6             	mov    %rdx,%rsi
  406108:	48 89 c7             	mov    %rax,%rdi
  40610b:	e8 c0 bd ff ff       	callq  401ed0 <bs_shiftrows>
  406110:	48 8d 95 f0 cb ff ff 	lea    -0x3410(%rbp),%rdx
  406117:	48 8d 85 f0 cf ff ff 	lea    -0x3010(%rbp),%rax
  40611e:	48 89 d6             	mov    %rdx,%rsi
  406121:	48 89 c7             	mov    %rax,%rdi
  406124:	e8 f9 d5 ff ff       	callq  403722 <bs_mixcolumns>
  406129:	48 8d 85 f0 d3 ff ff 	lea    -0x2c10(%rbp),%rax
  406130:	8b 95 e8 cb ff ff    	mov    -0x3418(%rbp),%edx
  406136:	48 63 d2             	movslq %edx,%rdx
  406139:	48 c1 e2 0a          	shl    $0xa,%rdx
  40613d:	48 01 c2             	add    %rax,%rdx
  406140:	48 8d 85 f0 cf ff ff 	lea    -0x3010(%rbp),%rax
  406147:	48 89 d6             	mov    %rdx,%rsi
  40614a:	48 89 c7             	mov    %rax,%rdi
  40614d:	e8 d4 fb ff ff       	callq  405d26 <bs_addroundkey>
  406152:	48 8d 85 f0 cb ff ff 	lea    -0x3410(%rbp),%rax
  406159:	48 8d 95 f0 cf ff ff 	lea    -0x3010(%rbp),%rdx
  406160:	b9 80 00 00 00       	mov    $0x80,%ecx
  406165:	48 89 c7             	mov    %rax,%rdi
  406168:	48 89 d6             	mov    %rdx,%rsi
  40616b:	f3 48 a5             	rep movsq %ds:(%rsi),%es:(%rdi)
  40616e:	83 85 ec cb ff ff 01 	addl   $0x1,-0x3414(%rbp)
  406175:	83 bd ec cb ff ff 09 	cmpl   $0x9,-0x3414(%rbp)
  40617c:	0f 8e 5c ff ff ff    	jle    4060de <test_aes+0xf5>
  406182:	48 8d 95 f0 cf ff ff 	lea    -0x3010(%rbp),%rdx
  406189:	48 8d 85 f0 cb ff ff 	lea    -0x3410(%rbp),%rax
  406190:	48 89 d6             	mov    %rdx,%rsi
  406193:	48 89 c7             	mov    %rax,%rdi
  406196:	e8 f6 fb ff ff       	callq  405d91 <bs_apply_sbox>
  40619b:	48 8d 95 f0 cb ff ff 	lea    -0x3410(%rbp),%rdx
  4061a2:	48 8d 85 f0 cf ff ff 	lea    -0x3010(%rbp),%rax
  4061a9:	48 89 d6             	mov    %rdx,%rsi
  4061ac:	48 89 c7             	mov    %rax,%rdi
  4061af:	e8 1c bd ff ff       	callq  401ed0 <bs_shiftrows>
  4061b4:	48 8d 85 f0 d3 ff ff 	lea    -0x2c10(%rbp),%rax
  4061bb:	48 8d 90 00 28 00 00 	lea    0x2800(%rax),%rdx
  4061c2:	48 8d 85 f0 cf ff ff 	lea    -0x3010(%rbp),%rax
  4061c9:	48 89 d6             	mov    %rdx,%rsi
  4061cc:	48 89 c7             	mov    %rax,%rdi
  4061cf:	e8 52 fb ff ff       	callq  405d26 <bs_addroundkey>
  4061d4:	bf df 64 40 00       	mov    $0x4064df,%edi
  4061d9:	e8 52 a3 ff ff       	callq  400530 <puts@plt>
  4061de:	48 8d 85 f0 cf ff ff 	lea    -0x3010(%rbp),%rax
  4061e5:	be 80 00 00 00       	mov    $0x80,%esi
  4061ea:	48 89 c7             	mov    %rax,%rdi
  4061ed:	e8 57 f7 ff ff       	callq  405949 <word_dump>
  4061f2:	48 8d 85 f0 d3 ff ff 	lea    -0x2c10(%rbp),%rax
  4061f9:	48 8d 90 00 28 00 00 	lea    0x2800(%rax),%rdx
  406200:	48 8d 85 f0 cf ff ff 	lea    -0x3010(%rbp),%rax
  406207:	48 89 d6             	mov    %rdx,%rsi
  40620a:	48 89 c7             	mov    %rax,%rdi
  40620d:	e8 14 fb ff ff       	callq  405d26 <bs_addroundkey>
  406212:	c7 85 ec cb ff ff 09 	movl   $0x9,-0x3414(%rbp)
  406219:	00 00 00 
  40621c:	e9 9c 00 00 00       	jmpq   4062bd <test_aes+0x2d4>
  406221:	48 8d 95 f0 cf ff ff 	lea    -0x3010(%rbp),%rdx
  406228:	48 8d 85 f0 cb ff ff 	lea    -0x3410(%rbp),%rax
  40622f:	48 89 d6             	mov    %rdx,%rsi
  406232:	48 89 c7             	mov    %rax,%rdi
  406235:	e8 bf c8 ff ff       	callq  402af9 <bs_shiftrows_rev>
  40623a:	48 8d 95 f0 cb ff ff 	lea    -0x3410(%rbp),%rdx
  406241:	48 8d 85 f0 cf ff ff 	lea    -0x3010(%rbp),%rax
  406248:	48 89 d6             	mov    %rdx,%rsi
  40624b:	48 89 c7             	mov    %rax,%rdi
  40624e:	e8 96 fb ff ff       	callq  405de9 <bs_apply_sbox_rev>
  406253:	48 8d 85 f0 d3 ff ff 	lea    -0x2c10(%rbp),%rax
  40625a:	8b 95 e8 cb ff ff    	mov    -0x3418(%rbp),%edx
  406260:	48 63 d2             	movslq %edx,%rdx
  406263:	48 c1 e2 0a          	shl    $0xa,%rdx
  406267:	48 01 c2             	add    %rax,%rdx
  40626a:	48 8d 85 f0 cf ff ff 	lea    -0x3010(%rbp),%rax
  406271:	48 89 d6             	mov    %rdx,%rsi
  406274:	48 89 c7             	mov    %rax,%rdi
  406277:	e8 aa fa ff ff       	callq  405d26 <bs_addroundkey>
  40627c:	48 8d 95 f0 cf ff ff 	lea    -0x3010(%rbp),%rdx
  406283:	48 8d 85 f0 cb ff ff 	lea    -0x3410(%rbp),%rax
  40628a:	48 89 d6             	mov    %rdx,%rsi
  40628d:	48 89 c7             	mov    %rax,%rdi
  406290:	b8 00 00 00 00       	mov    $0x0,%eax
  406295:	e8 95 df ff ff       	callq  40422f <bs_mixcolumns_rev>
  40629a:	48 8d 85 f0 cf ff ff 	lea    -0x3010(%rbp),%rax
  4062a1:	48 8d 95 f0 cb ff ff 	lea    -0x3410(%rbp),%rdx
  4062a8:	b9 80 00 00 00       	mov    $0x80,%ecx
  4062ad:	48 89 c7             	mov    %rax,%rdi
  4062b0:	48 89 d6             	mov    %rdx,%rsi
  4062b3:	f3 48 a5             	rep movsq %ds:(%rsi),%es:(%rdi)
  4062b6:	83 ad ec cb ff ff 01 	subl   $0x1,-0x3414(%rbp)
  4062bd:	83 bd ec cb ff ff 00 	cmpl   $0x0,-0x3414(%rbp)
  4062c4:	0f 8f 57 ff ff ff    	jg     406221 <test_aes+0x238>
  4062ca:	48 8d 95 f0 cf ff ff 	lea    -0x3010(%rbp),%rdx
  4062d1:	48 8d 85 f0 cb ff ff 	lea    -0x3410(%rbp),%rax
  4062d8:	48 89 d6             	mov    %rdx,%rsi
  4062db:	48 89 c7             	mov    %rax,%rdi
  4062de:	e8 16 c8 ff ff       	callq  402af9 <bs_shiftrows_rev>
  4062e3:	48 8d 95 f0 cb ff ff 	lea    -0x3410(%rbp),%rdx
  4062ea:	48 8d 85 f0 cf ff ff 	lea    -0x3010(%rbp),%rax
  4062f1:	48 89 d6             	mov    %rdx,%rsi
  4062f4:	48 89 c7             	mov    %rax,%rdi
  4062f7:	e8 ed fa ff ff       	callq  405de9 <bs_apply_sbox_rev>
  4062fc:	48 8d 95 f0 d3 ff ff 	lea    -0x2c10(%rbp),%rdx
  406303:	48 8d 85 f0 cf ff ff 	lea    -0x3010(%rbp),%rax
  40630a:	48 89 d6             	mov    %rdx,%rsi
  40630d:	48 89 c7             	mov    %rax,%rdi
  406310:	e8 11 fa ff ff       	callq  405d26 <bs_addroundkey>
  406315:	bf eb 64 40 00       	mov    $0x4064eb,%edi
  40631a:	e8 11 a2 ff ff       	callq  400530 <puts@plt>
  40631f:	48 8d 85 f0 cf ff ff 	lea    -0x3010(%rbp),%rax
  406326:	be 80 00 00 00       	mov    $0x80,%esi
  40632b:	48 89 c7             	mov    %rax,%rdi
  40632e:	e8 16 f6 ff ff       	callq  405949 <word_dump>
  406333:	48 8b 45 f8          	mov    -0x8(%rbp),%rax
  406337:	64 48 33 04 25 28 00 	xor    %fs:0x28,%rax
  40633e:	00 00 
  406340:	74 05                	je     406347 <test_aes+0x35e>
  406342:	e8 f9 a1 ff ff       	callq  400540 <__stack_chk_fail@plt>
  406347:	c9                   	leaveq 
  406348:	c3                   	retq   

0000000000406349 <main>:
  406349:	55                   	push   %rbp
  40634a:	48 89 e5             	mov    %rsp,%rbp
  40634d:	b8 00 00 00 00       	mov    $0x0,%eax
  406352:	e8 92 fc ff ff       	callq  405fe9 <test_aes>
  406357:	b8 00 00 00 00       	mov    $0x0,%eax
  40635c:	5d                   	pop    %rbp
  40635d:	c3                   	retq   
  40635e:	66 90                	xchg   %ax,%ax

0000000000406360 <__libc_csu_init>:
  406360:	41 57                	push   %r15
  406362:	41 56                	push   %r14
  406364:	41 89 ff             	mov    %edi,%r15d
  406367:	41 55                	push   %r13
  406369:	41 54                	push   %r12
  40636b:	4c 8d 25 9e 0a 20 00 	lea    0x200a9e(%rip),%r12        # 606e10 <__frame_dummy_init_array_entry>
  406372:	55                   	push   %rbp
  406373:	48 8d 2d 9e 0a 20 00 	lea    0x200a9e(%rip),%rbp        # 606e18 <__init_array_end>
  40637a:	53                   	push   %rbx
  40637b:	49 89 f6             	mov    %rsi,%r14
  40637e:	49 89 d5             	mov    %rdx,%r13
  406381:	31 db                	xor    %ebx,%ebx
  406383:	4c 29 e5             	sub    %r12,%rbp
  406386:	48 83 ec 08          	sub    $0x8,%rsp
  40638a:	48 c1 fd 03          	sar    $0x3,%rbp
  40638e:	e8 55 a1 ff ff       	callq  4004e8 <_init>
  406393:	48 85 ed             	test   %rbp,%rbp
  406396:	74 1e                	je     4063b6 <__libc_csu_init+0x56>
  406398:	0f 1f 84 00 00 00 00 	nopl   0x0(%rax,%rax,1)
  40639f:	00 
  4063a0:	4c 89 ea             	mov    %r13,%rdx
  4063a3:	4c 89 f6             	mov    %r14,%rsi
  4063a6:	44 89 ff             	mov    %r15d,%edi
  4063a9:	41 ff 14 dc          	callq  *(%r12,%rbx,8)
  4063ad:	48 83 c3 01          	add    $0x1,%rbx
  4063b1:	48 39 eb             	cmp    %rbp,%rbx
  4063b4:	75 ea                	jne    4063a0 <__libc_csu_init+0x40>
  4063b6:	48 83 c4 08          	add    $0x8,%rsp
  4063ba:	5b                   	pop    %rbx
  4063bb:	5d                   	pop    %rbp
  4063bc:	41 5c                	pop    %r12
  4063be:	41 5d                	pop    %r13
  4063c0:	41 5e                	pop    %r14
  4063c2:	41 5f                	pop    %r15
  4063c4:	c3                   	retq   
  4063c5:	90                   	nop
  4063c6:	66 2e 0f 1f 84 00 00 	nopw   %cs:0x0(%rax,%rax,1)
  4063cd:	00 00 00 

00000000004063d0 <__libc_csu_fini>:
  4063d0:	f3 c3                	repz retq 

Disassembly of section .fini:

00000000004063d4 <_fini>:
  4063d4:	48 83 ec 08          	sub    $0x8,%rsp
  4063d8:	48 83 c4 08          	add    $0x8,%rsp
  4063dc:	c3                   	retq   

Disassembly of section .rodata:

00000000004063e0 <_IO_stdin_used>:
  4063e0:	01 00                	add    %eax,(%rax)
  4063e2:	02 00                	add    (%rax),%al
  4063e4:	25 30 32 68 68       	and    $0x68683230,%eax
  4063e9:	78 00                	js     4063eb <_IO_stdin_used+0xb>
  4063eb:	25 30 31 36 6c       	and    $0x6c363130,%eax
  4063f0:	78 0a                	js     4063fc <_IO_stdin_used+0x1c>
  4063f2:	00 54 52 41          	add    %dl,0x41(%rdx,%rdx,2)
  4063f6:	4e 53                	rex.WRX push %rbx
  4063f8:	50                   	push   %rax
  4063f9:	4f 53                	rex.WRXB push %r11
  4063fb:	45 20 6f 72          	and    %r13b,0x72(%r15)
  4063ff:	69 67 69 6e 61 6c 3a 	imul   $0x3a6c616e,0x69(%rdi),%esp
  406406:	00 54 52 41          	add    %dl,0x41(%rdx,%rdx,2)
  40640a:	4e 53                	rex.WRX push %rbx
  40640c:	50                   	push   %rax
  40640d:	4f 53                	rex.WRXB push %r11
  40640f:	45 20 6f 75          	and    %r13b,0x75(%r15)
  406413:	74 70                	je     406485 <_IO_stdin_used+0xa5>
  406415:	75 74                	jne    40648b <_IO_stdin_used+0xab>
  406417:	3a 00                	cmp    (%rax),%al
  406419:	54                   	push   %rsp
  40641a:	52                   	push   %rdx
  40641b:	41                   	rex.B
  40641c:	4e 53                	rex.WRX push %rbx
  40641e:	50                   	push   %rax
  40641f:	4f 53                	rex.WRXB push %r11
  406421:	45 20 72 65          	and    %r14b,0x65(%r10)
  406425:	76 65                	jbe    40648c <_IO_stdin_used+0xac>
  406427:	72 73                	jb     40649c <_IO_stdin_used+0xbc>
  406429:	65 3a 00             	cmp    %gs:(%rax),%al
  40642c:	53                   	push   %rbx
  40642d:	42                   	rex.X
  40642e:	4f 58                	rex.WRXB pop %r8
  406430:	20 69 6e             	and    %ch,0x6e(%rcx)
  406433:	70 75                	jo     4064aa <_IO_stdin_used+0xca>
  406435:	74 3a                	je     406471 <_IO_stdin_used+0x91>
  406437:	00 53 42             	add    %dl,0x42(%rbx)
  40643a:	4f 58                	rex.WRXB pop %r8
  40643c:	20 6f 75             	and    %ch,0x75(%rdi)
  40643f:	74 70                	je     4064b1 <_IO_stdin_used+0xd1>
  406441:	75 74                	jne    4064b7 <_IO_stdin_used+0xd7>
  406443:	3a 00                	cmp    (%rax),%al
  406445:	53                   	push   %rbx
  406446:	42                   	rex.X
  406447:	4f 58                	rex.WRXB pop %r8
  406449:	20 72 65             	and    %dh,0x65(%rdx)
  40644c:	76 65                	jbe    4064b3 <_IO_stdin_used+0xd3>
  40644e:	72 73                	jb     4064c3 <_IO_stdin_used+0xe3>
  406450:	65 3a 00             	cmp    %gs:(%rax),%al
  406453:	4d                   	rex.WRB
  406454:	49 58                	rex.WB pop %r8
  406456:	43                   	rex.XB
  406457:	4f                   	rex.WRXB
  406458:	4c 55                	rex.WR push %rbp
  40645a:	4d                   	rex.WRB
  40645b:	4e 53                	rex.WRX push %rbx
  40645d:	20 69 6e             	and    %ch,0x6e(%rcx)
  406460:	70 75                	jo     4064d7 <_IO_stdin_used+0xf7>
  406462:	74 3a                	je     40649e <_IO_stdin_used+0xbe>
  406464:	00 4d 49             	add    %cl,0x49(%rbp)
  406467:	58                   	pop    %rax
  406468:	43                   	rex.XB
  406469:	4f                   	rex.WRXB
  40646a:	4c 55                	rex.WR push %rbp
  40646c:	4d                   	rex.WRB
  40646d:	4e 53                	rex.WRX push %rbx
  40646f:	20 6f 75             	and    %ch,0x75(%rdi)
  406472:	74 70                	je     4064e4 <_IO_stdin_used+0x104>
  406474:	75 74                	jne    4064ea <_IO_stdin_used+0x10a>
  406476:	3a 00                	cmp    (%rax),%al
  406478:	4d                   	rex.WRB
  406479:	49 58                	rex.WB pop %r8
  40647b:	43                   	rex.XB
  40647c:	4f                   	rex.WRXB
  40647d:	4c 55                	rex.WR push %rbp
  40647f:	4d                   	rex.WRB
  406480:	4e 53                	rex.WRX push %rbx
  406482:	20 72 65             	and    %dh,0x65(%rdx)
  406485:	76 65                	jbe    4064ec <_IO_stdin_used+0x10c>
  406487:	72 73                	jb     4064fc <_IO_stdin_used+0x11c>
  406489:	65 3a 00             	cmp    %gs:(%rax),%al
  40648c:	53                   	push   %rbx
  40648d:	48                   	rex.W
  40648e:	49                   	rex.WB
  40648f:	46 54                	rex.RX push %rsp
  406491:	52                   	push   %rdx
  406492:	4f 57                	rex.WRXB push %r15
  406494:	53                   	push   %rbx
  406495:	20 69 6e             	and    %ch,0x6e(%rcx)
  406498:	70 75                	jo     40650f <_IO_stdin_used+0x12f>
  40649a:	74 3a                	je     4064d6 <_IO_stdin_used+0xf6>
  40649c:	00 53 48             	add    %dl,0x48(%rbx)
  40649f:	49                   	rex.WB
  4064a0:	46 54                	rex.RX push %rsp
  4064a2:	52                   	push   %rdx
  4064a3:	4f 57                	rex.WRXB push %r15
  4064a5:	53                   	push   %rbx
  4064a6:	20 6f 75             	and    %ch,0x75(%rdi)
  4064a9:	74 70                	je     40651b <_IO_stdin_used+0x13b>
  4064ab:	75 74                	jne    406521 <_IO_stdin_used+0x141>
  4064ad:	3a 00                	cmp    (%rax),%al
  4064af:	53                   	push   %rbx
  4064b0:	48                   	rex.W
  4064b1:	49                   	rex.WB
  4064b2:	46 54                	rex.RX push %rsp
  4064b4:	52                   	push   %rdx
  4064b5:	4f 57                	rex.WRXB push %r15
  4064b7:	53                   	push   %rbx
  4064b8:	20 72 65             	and    %dh,0x65(%rdx)
  4064bb:	76 65                	jbe    406522 <_IO_stdin_used+0x142>
  4064bd:	72 73                	jb     406532 <_IO_stdin_used+0x152>
  4064bf:	65 3a 00             	cmp    %gs:(%rax),%al
  4064c2:	61                   	(bad)  
  4064c3:	6c                   	insb   (%dx),%es:(%rdi)
  4064c4:	6c                   	insb   (%dx),%es:(%rdi)
  4064c5:	20 73 74             	and    %dh,0x74(%rbx)
  4064c8:	65 70 73             	gs jo  40653e <_IO_stdin_used+0x15e>
  4064cb:	20 6f 75             	and    %ch,0x75(%rdi)
  4064ce:	74 70                	je     406540 <_IO_stdin_used+0x160>
  4064d0:	75 74                	jne    406546 <_IO_stdin_used+0x166>
  4064d2:	3a 00                	cmp    (%rax),%al
  4064d4:	41                   	rex.B
  4064d5:	45 53                	rex.RB push %r11
  4064d7:	20 69 6e             	and    %ch,0x6e(%rcx)
  4064da:	70 75                	jo     406551 <_IO_stdin_used+0x171>
  4064dc:	74 3a                	je     406518 <_IO_stdin_used+0x138>
  4064de:	00 41 45             	add    %al,0x45(%rcx)
  4064e1:	53                   	push   %rbx
  4064e2:	20 6f 75             	and    %ch,0x75(%rdi)
  4064e5:	74 70                	je     406557 <_IO_stdin_used+0x177>
  4064e7:	75 74                	jne    40655d <_IO_stdin_used+0x17d>
  4064e9:	3a 00                	cmp    (%rax),%al
  4064eb:	41                   	rex.B
  4064ec:	45 53                	rex.RB push %r11
  4064ee:	20 72 65             	and    %dh,0x65(%rdx)
  4064f1:	76 65                	jbe    406558 <_IO_stdin_used+0x178>
  4064f3:	72 73                	jb     406568 <_IO_stdin_used+0x188>
  4064f5:	65 3a 00             	cmp    %gs:(%rax),%al

Disassembly of section .eh_frame_hdr:

00000000004064f8 <.eh_frame_hdr>:
  4064f8:	01 1b                	add    %ebx,(%rbx)
  4064fa:	03 3b                	add    (%rbx),%edi
  4064fc:	cc                   	int3   
  4064fd:	00 00                	add    %al,(%rax)
  4064ff:	00 18                	add    %bl,(%rax)
  406501:	00 00                	add    %al,(%rax)
  406503:	00 18                	add    %bl,(%rax)
  406505:	a0 ff ff 18 01 00 00 	movabs 0xa09800000118ffff,%al
  40650c:	98 a0 
  40650e:	ff                   	(bad)  
  40650f:	ff                   	(bad)  
  406510:	e8 00 00 00 8e       	callq  ffffffff8e406515 <_end+0xffffffff8ddff04d>
  406515:	a1 ff ff 40 01 00 00 	movabs 0xaccb00000140ffff,%eax
  40651c:	cb ac 
  40651e:	ff                   	(bad)  
  40651f:	ff 60 01             	jmpq   *0x1(%rax)
  406522:	00 00                	add    %al,(%rax)
  406524:	03 b8 ff ff 80 01    	add    0x180ffff(%rax),%edi
  40652a:	00 00                	add    %al,(%rax)
  40652c:	ee                   	out    %al,(%dx)
  40652d:	b8 ff ff a0 01       	mov    $0x1a0ffff,%eax
  406532:	00 00                	add    %al,(%rax)
  406534:	d8 b9 ff ff c0 01    	fdivrs 0x1c0ffff(%rcx)
  40653a:	00 00                	add    %al,(%rax)
  40653c:	01 c6                	add    %eax,%esi
  40653e:	ff                   	(bad)  
  40653f:	ff e0                	jmpq   *%rax
  406541:	01 00                	add    %eax,(%rax)
  406543:	00 2a                	add    %ch,(%rdx)
  406545:	d2 ff                	sar    %cl,%bh
  406547:	ff 00                	incl   (%rax)
  406549:	02 00                	add    (%rax),%al
  40654b:	00 37                	add    %dh,(%rdi)
  40654d:	dd ff                	(bad)  
  40654f:	ff 20                	jmpq   *(%rax)
  406551:	02 00                	add    (%rax),%al
  406553:	00 04 f4             	add    %al,(%rsp,%rsi,8)
  406556:	ff                   	(bad)  
  406557:	ff 40 02             	incl   0x2(%rax)
  40655a:	00 00                	add    %al,(%rax)
  40655c:	51                   	push   %rcx
  40655d:	f4                   	hlt    
  40655e:	ff                   	(bad)  
  40655f:	ff 60 02             	jmpq   *0x2(%rax)
  406562:	00 00                	add    %al,(%rax)
  406564:	9c                   	pushfq 
  406565:	f4                   	hlt    
  406566:	ff                   	(bad)  
  406567:	ff 80 02 00 00 80    	incl   -0x7ffffffe(%rax)
  40656d:	f5                   	cmc    
  40656e:	ff                   	(bad)  
  40656f:	ff a0 02 00 00 4b    	jmpq   *0x4b000002(%rax)
  406575:	f6 ff                	idiv   %bh
  406577:	ff c0                	inc    %eax
  406579:	02 00                	add    (%rax),%al
  40657b:	00 3f                	add    %bh,(%rdi)
  40657d:	f7 ff                	idiv   %edi
  40657f:	ff e0                	jmpq   *%rax
  406581:	02 00                	add    (%rax),%al
  406583:	00 2e                	add    %ch,(%rsi)
  406585:	f8                   	clc    
  406586:	ff                   	(bad)  
  406587:	ff 00                	incl   (%rax)
  406589:	03 00                	add    (%rax),%eax
  40658b:	00 99 f8 ff ff 20    	add    %bl,0x20fffff8(%rcx)
  406591:	03 00                	add    (%rax),%eax
  406593:	00 f1                	add    %dh,%cl
  406595:	f8                   	clc    
  406596:	ff                   	(bad)  
  406597:	ff 40 03             	incl   0x3(%rax)
  40659a:	00 00                	add    %al,(%rax)
  40659c:	49 f9                	rex.WB stc 
  40659e:	ff                   	(bad)  
  40659f:	ff 60 03             	jmpq   *0x3(%rax)
  4065a2:	00 00                	add    %al,(%rax)
  4065a4:	f1                   	icebp  
  4065a5:	fa                   	cli    
  4065a6:	ff                   	(bad)  
  4065a7:	ff 80 03 00 00 51    	incl   0x51000003(%rax)
  4065ad:	fe                   	(bad)  
  4065ae:	ff                   	(bad)  
  4065af:	ff a0 03 00 00 68    	jmpq   *0x68000003(%rax)
  4065b5:	fe                   	(bad)  
  4065b6:	ff                   	(bad)  
  4065b7:	ff c0                	inc    %eax
  4065b9:	03 00                	add    (%rax),%eax
  4065bb:	00 d8                	add    %bl,%al
  4065bd:	fe                   	(bad)  
  4065be:	ff                   	(bad)  
  4065bf:	ff 08                	decl   (%rax)
  4065c1:	04 00                	add    $0x0,%al
	...

Disassembly of section .eh_frame:

00000000004065c8 <__FRAME_END__-0x350>:
  4065c8:	14 00                	adc    $0x0,%al
  4065ca:	00 00                	add    %al,(%rax)
  4065cc:	00 00                	add    %al,(%rax)
  4065ce:	00 00                	add    %al,(%rax)
  4065d0:	01 7a 52             	add    %edi,0x52(%rdx)
  4065d3:	00 01                	add    %al,(%rcx)
  4065d5:	78 10                	js     4065e7 <_IO_stdin_used+0x207>
  4065d7:	01 1b                	add    %ebx,(%rbx)
  4065d9:	0c 07                	or     $0x7,%al
  4065db:	08 90 01 07 10 14    	or     %dl,0x14100701(%rax)
  4065e1:	00 00                	add    %al,(%rax)
  4065e3:	00 1c 00             	add    %bl,(%rax,%rax,1)
  4065e6:	00 00                	add    %al,(%rax)
  4065e8:	a8 9f                	test   $0x9f,%al
  4065ea:	ff                   	(bad)  
  4065eb:	ff 2a                	ljmpq  *(%rdx)
	...
  4065f5:	00 00                	add    %al,(%rax)
  4065f7:	00 14 00             	add    %dl,(%rax,%rax,1)
  4065fa:	00 00                	add    %al,(%rax)
  4065fc:	00 00                	add    %al,(%rax)
  4065fe:	00 00                	add    %al,(%rax)
  406600:	01 7a 52             	add    %edi,0x52(%rdx)
  406603:	00 01                	add    %al,(%rcx)
  406605:	78 10                	js     406617 <_IO_stdin_used+0x237>
  406607:	01 1b                	add    %ebx,(%rbx)
  406609:	0c 07                	or     $0x7,%al
  40660b:	08 90 01 00 00 24    	or     %dl,0x24000001(%rax)
  406611:	00 00                	add    %al,(%rax)
  406613:	00 1c 00             	add    %bl,(%rax,%rax,1)
  406616:	00 00                	add    %al,(%rax)
  406618:	f8                   	clc    
  406619:	9e                   	sahf   
  40661a:	ff                   	(bad)  
  40661b:	ff 80 00 00 00 00    	incl   0x0(%rax)
  406621:	0e                   	(bad)  
  406622:	10 46 0e             	adc    %al,0xe(%rsi)
  406625:	18 4a 0f             	sbb    %cl,0xf(%rdx)
  406628:	0b 77 08             	or     0x8(%rdi),%esi
  40662b:	80 00 3f             	addb   $0x3f,(%rax)
  40662e:	1a 3b                	sbb    (%rbx),%bh
  406630:	2a 33                	sub    (%rbx),%dh
  406632:	24 22                	and    $0x22,%al
  406634:	00 00                	add    %al,(%rax)
  406636:	00 00                	add    %al,(%rax)
  406638:	1c 00                	sbb    $0x0,%al
  40663a:	00 00                	add    %al,(%rax)
  40663c:	44 00 00             	add    %r8b,(%rax)
  40663f:	00 46 a0             	add    %al,-0x60(%rsi)
  406642:	ff                   	(bad)  
  406643:	ff                   	(bad)  
  406644:	3d 0b 00 00 00       	cmp    $0xb,%eax
  406649:	41 0e                	rex.B (bad) 
  40664b:	10 86 02 43 0d 06    	adc    %al,0x60d4302(%rsi)
  406651:	03 38                	add    (%rax),%edi
  406653:	0b 0c 07             	or     (%rdi,%rax,1),%ecx
  406656:	08 00                	or     %al,(%rax)
  406658:	1c 00                	sbb    $0x0,%al
  40665a:	00 00                	add    %al,(%rax)
  40665c:	64 00 00             	add    %al,%fs:(%rax)
  40665f:	00 63 ab             	add    %ah,-0x55(%rbx)
  406662:	ff                   	(bad)  
  406663:	ff                   	(bad)  
  406664:	38 0b                	cmp    %cl,(%rbx)
  406666:	00 00                	add    %al,(%rax)
  406668:	00 41 0e             	add    %al,0xe(%rcx)
  40666b:	10 86 02 43 0d 06    	adc    %al,0x60d4302(%rsi)
  406671:	03 33                	add    (%rbx),%esi
  406673:	0b 0c 07             	or     (%rdi,%rax,1),%ecx
  406676:	08 00                	or     %al,(%rax)
  406678:	1c 00                	sbb    $0x0,%al
  40667a:	00 00                	add    %al,(%rax)
  40667c:	84 00                	test   %al,(%rax)
  40667e:	00 00                	add    %al,(%rax)
  406680:	7b b6                	jnp    406638 <_IO_stdin_used+0x258>
  406682:	ff                   	(bad)  
  406683:	ff                   	(bad)  
  406684:	eb 00                	jmp    406686 <_IO_stdin_used+0x2a6>
  406686:	00 00                	add    %al,(%rax)
  406688:	00 41 0e             	add    %al,0xe(%rcx)
  40668b:	10 86 02 43 0d 06    	adc    %al,0x60d4302(%rsi)
  406691:	02 e6                	add    %dh,%ah
  406693:	0c 07                	or     $0x7,%al
  406695:	08 00                	or     %al,(%rax)
  406697:	00 1c 00             	add    %bl,(%rax,%rax,1)
  40669a:	00 00                	add    %al,(%rax)
  40669c:	a4                   	movsb  %ds:(%rsi),%es:(%rdi)
  40669d:	00 00                	add    %al,(%rax)
  40669f:	00 46 b7             	add    %al,-0x49(%rsi)
  4066a2:	ff                   	(bad)  
  4066a3:	ff                   	(bad)  
  4066a4:	ea                   	(bad)  
  4066a5:	00 00                	add    %al,(%rax)
  4066a7:	00 00                	add    %al,(%rax)
  4066a9:	41 0e                	rex.B (bad) 
  4066ab:	10 86 02 43 0d 06    	adc    %al,0x60d4302(%rsi)
  4066b1:	02 e5                	add    %ch,%ah
  4066b3:	0c 07                	or     $0x7,%al
  4066b5:	08 00                	or     %al,(%rax)
  4066b7:	00 1c 00             	add    %bl,(%rax,%rax,1)
  4066ba:	00 00                	add    %al,(%rax)
  4066bc:	c4                   	(bad)  
  4066bd:	00 00                	add    %al,(%rax)
  4066bf:	00 10                	add    %dl,(%rax)
  4066c1:	b8 ff ff 29 0c       	mov    $0xc29ffff,%eax
  4066c6:	00 00                	add    %al,(%rax)
  4066c8:	00 41 0e             	add    %al,0xe(%rcx)
  4066cb:	10 86 02 43 0d 06    	adc    %al,0x60d4302(%rsi)
  4066d1:	03 24 0c             	add    (%rsp,%rcx,1),%esp
  4066d4:	0c 07                	or     $0x7,%al
  4066d6:	08 00                	or     %al,(%rax)
  4066d8:	1c 00                	sbb    $0x0,%al
  4066da:	00 00                	add    %al,(%rax)
  4066dc:	e4 00                	in     $0x0,%al
  4066de:	00 00                	add    %al,(%rax)
  4066e0:	19 c4                	sbb    %eax,%esp
  4066e2:	ff                   	(bad)  
  4066e3:	ff 29                	ljmpq  *(%rcx)
  4066e5:	0c 00                	or     $0x0,%al
  4066e7:	00 00                	add    %al,(%rax)
  4066e9:	41 0e                	rex.B (bad) 
  4066eb:	10 86 02 43 0d 06    	adc    %al,0x60d4302(%rsi)
  4066f1:	03 24 0c             	add    (%rsp,%rcx,1),%esp
  4066f4:	0c 07                	or     $0x7,%al
  4066f6:	08 00                	or     %al,(%rax)
  4066f8:	1c 00                	sbb    $0x0,%al
  4066fa:	00 00                	add    %al,(%rax)
  4066fc:	04 01                	add    $0x1,%al
  4066fe:	00 00                	add    %al,(%rax)
  406700:	22 d0                	and    %al,%dl
  406702:	ff                   	(bad)  
  406703:	ff 0d 0b 00 00 00    	decl   0xb(%rip)        # 406714 <_IO_stdin_used+0x334>
  406709:	41 0e                	rex.B (bad) 
  40670b:	10 86 02 43 0d 06    	adc    %al,0x60d4302(%rsi)
  406711:	03 08                	add    (%rax),%ecx
  406713:	0b 0c 07             	or     (%rdi,%rax,1),%ecx
  406716:	08 00                	or     %al,(%rax)
  406718:	1c 00                	sbb    $0x0,%al
  40671a:	00 00                	add    %al,(%rax)
  40671c:	24 01                	and    $0x1,%al
  40671e:	00 00                	add    %al,(%rax)
  406720:	0f db ff             	pand   %mm7,%mm7
  406723:	ff cd                	dec    %ebp
  406725:	16                   	(bad)  
  406726:	00 00                	add    %al,(%rax)
  406728:	00 41 0e             	add    %al,0xe(%rcx)
  40672b:	10 86 02 43 0d 06    	adc    %al,0x60d4302(%rsi)
  406731:	03 c8                	add    %eax,%ecx
  406733:	16                   	(bad)  
  406734:	0c 07                	or     $0x7,%al
  406736:	08 00                	or     %al,(%rax)
  406738:	1c 00                	sbb    $0x0,%al
  40673a:	00 00                	add    %al,(%rax)
  40673c:	44 01 00             	add    %r8d,(%rax)
  40673f:	00 bc f1 ff ff 4d 00 	add    %bh,0x4dffff(%rcx,%rsi,8)
  406746:	00 00                	add    %al,(%rax)
  406748:	00 41 0e             	add    %al,0xe(%rcx)
  40674b:	10 86 02 43 0d 06    	adc    %al,0x60d4302(%rsi)
  406751:	02 48 0c             	add    0xc(%rax),%cl
  406754:	07                   	(bad)  
  406755:	08 00                	or     %al,(%rax)
  406757:	00 1c 00             	add    %bl,(%rax,%rax,1)
  40675a:	00 00                	add    %al,(%rax)
  40675c:	64 01 00             	add    %eax,%fs:(%rax)
  40675f:	00 e9                	add    %ch,%cl
  406761:	f1                   	icebp  
  406762:	ff                   	(bad)  
  406763:	ff 4b 00             	decl   0x0(%rbx)
  406766:	00 00                	add    %al,(%rax)
  406768:	00 41 0e             	add    %al,0xe(%rcx)
  40676b:	10 86 02 43 0d 06    	adc    %al,0x60d4302(%rsi)
  406771:	02 46 0c             	add    0xc(%rsi),%al
  406774:	07                   	(bad)  
  406775:	08 00                	or     %al,(%rax)
  406777:	00 1c 00             	add    %bl,(%rax,%rax,1)
  40677a:	00 00                	add    %al,(%rax)
  40677c:	84 01                	test   %al,(%rcx)
  40677e:	00 00                	add    %al,(%rax)
  406780:	14 f2                	adc    $0xf2,%al
  406782:	ff                   	(bad)  
  406783:	ff e4                	jmpq   *%rsp
  406785:	00 00                	add    %al,(%rax)
  406787:	00 00                	add    %al,(%rax)
  406789:	41 0e                	rex.B (bad) 
  40678b:	10 86 02 43 0d 06    	adc    %al,0x60d4302(%rsi)
  406791:	02 df                	add    %bh,%bl
  406793:	0c 07                	or     $0x7,%al
  406795:	08 00                	or     %al,(%rax)
  406797:	00 1c 00             	add    %bl,(%rax,%rax,1)
  40679a:	00 00                	add    %al,(%rax)
  40679c:	a4                   	movsb  %ds:(%rsi),%es:(%rdi)
  40679d:	01 00                	add    %eax,(%rax)
  40679f:	00 d8                	add    %bl,%al
  4067a1:	f2 ff                	repnz (bad) 
  4067a3:	ff cb                	dec    %ebx
  4067a5:	00 00                	add    %al,(%rax)
  4067a7:	00 00                	add    %al,(%rax)
  4067a9:	41 0e                	rex.B (bad) 
  4067ab:	10 86 02 43 0d 06    	adc    %al,0x60d4302(%rsi)
  4067b1:	02 c6                	add    %dh,%al
  4067b3:	0c 07                	or     $0x7,%al
  4067b5:	08 00                	or     %al,(%rax)
  4067b7:	00 1c 00             	add    %bl,(%rax,%rax,1)
  4067ba:	00 00                	add    %al,(%rax)
  4067bc:	c4 01 00 00          	(bad)  
  4067c0:	83 f3 ff             	xor    $0xffffffff,%ebx
  4067c3:	ff f4                	push   %rsp
  4067c5:	00 00                	add    %al,(%rax)
  4067c7:	00 00                	add    %al,(%rax)
  4067c9:	41 0e                	rex.B (bad) 
  4067cb:	10 86 02 43 0d 06    	adc    %al,0x60d4302(%rsi)
  4067d1:	02 ef                	add    %bh,%ch
  4067d3:	0c 07                	or     $0x7,%al
  4067d5:	08 00                	or     %al,(%rax)
  4067d7:	00 1c 00             	add    %bl,(%rax,%rax,1)
  4067da:	00 00                	add    %al,(%rax)
  4067dc:	e4 01                	in     $0x1,%al
  4067de:	00 00                	add    %al,(%rax)
  4067e0:	57                   	push   %rdi
  4067e1:	f4                   	hlt    
  4067e2:	ff                   	(bad)  
  4067e3:	ff                   	(bad)  
  4067e4:	ef                   	out    %eax,(%dx)
  4067e5:	00 00                	add    %al,(%rax)
  4067e7:	00 00                	add    %al,(%rax)
  4067e9:	41 0e                	rex.B (bad) 
  4067eb:	10 86 02 43 0d 06    	adc    %al,0x60d4302(%rsi)
  4067f1:	02 ea                	add    %dl,%ch
  4067f3:	0c 07                	or     $0x7,%al
  4067f5:	08 00                	or     %al,(%rax)
  4067f7:	00 1c 00             	add    %bl,(%rax,%rax,1)
  4067fa:	00 00                	add    %al,(%rax)
  4067fc:	04 02                	add    $0x2,%al
  4067fe:	00 00                	add    %al,(%rax)
  406800:	26 f5                	es cmc 
  406802:	ff                   	(bad)  
  406803:	ff 6b 00             	ljmpq  *0x0(%rbx)
  406806:	00 00                	add    %al,(%rax)
  406808:	00 41 0e             	add    %al,0xe(%rcx)
  40680b:	10 86 02 43 0d 06    	adc    %al,0x60d4302(%rsi)
  406811:	02 66 0c             	add    0xc(%rsi),%ah
  406814:	07                   	(bad)  
  406815:	08 00                	or     %al,(%rax)
  406817:	00 1c 00             	add    %bl,(%rax,%rax,1)
  40681a:	00 00                	add    %al,(%rax)
  40681c:	24 02                	and    $0x2,%al
  40681e:	00 00                	add    %al,(%rax)
  406820:	71 f5                	jno    406817 <_IO_stdin_used+0x437>
  406822:	ff                   	(bad)  
  406823:	ff 58 00             	lcallq *0x0(%rax)
  406826:	00 00                	add    %al,(%rax)
  406828:	00 41 0e             	add    %al,0xe(%rcx)
  40682b:	10 86 02 43 0d 06    	adc    %al,0x60d4302(%rsi)
  406831:	02 53 0c             	add    0xc(%rbx),%dl
  406834:	07                   	(bad)  
  406835:	08 00                	or     %al,(%rax)
  406837:	00 1c 00             	add    %bl,(%rax,%rax,1)
  40683a:	00 00                	add    %al,(%rax)
  40683c:	44 02 00             	add    (%rax),%r8b
  40683f:	00 a9 f5 ff ff 58    	add    %ch,0x58fffff5(%rcx)
  406845:	00 00                	add    %al,(%rax)
  406847:	00 00                	add    %al,(%rax)
  406849:	41 0e                	rex.B (bad) 
  40684b:	10 86 02 43 0d 06    	adc    %al,0x60d4302(%rsi)
  406851:	02 53 0c             	add    0xc(%rbx),%dl
  406854:	07                   	(bad)  
  406855:	08 00                	or     %al,(%rax)
  406857:	00 1c 00             	add    %bl,(%rax,%rax,1)
  40685a:	00 00                	add    %al,(%rax)
  40685c:	64 02 00             	add    %fs:(%rax),%al
  40685f:	00 e1                	add    %ah,%cl
  406861:	f5                   	cmc    
  406862:	ff                   	(bad)  
  406863:	ff a8 01 00 00 00    	ljmpq  *0x1(%rax)
  406869:	41 0e                	rex.B (bad) 
  40686b:	10 86 02 43 0d 06    	adc    %al,0x60d4302(%rsi)
  406871:	03 a3 01 0c 07 08    	add    0x8070c01(%rbx),%esp
  406877:	00 1c 00             	add    %bl,(%rax,%rax,1)
  40687a:	00 00                	add    %al,(%rax)
  40687c:	84 02                	test   %al,(%rdx)
  40687e:	00 00                	add    %al,(%rax)
  406880:	69 f7 ff ff 60 03    	imul   $0x360ffff,%edi,%esi
  406886:	00 00                	add    %al,(%rax)
  406888:	00 41 0e             	add    %al,0xe(%rcx)
  40688b:	10 86 02 43 0d 06    	adc    %al,0x60d4302(%rsi)
  406891:	03 5b 03             	add    0x3(%rbx),%ebx
  406894:	0c 07                	or     $0x7,%al
  406896:	08 00                	or     %al,(%rax)
  406898:	1c 00                	sbb    $0x0,%al
  40689a:	00 00                	add    %al,(%rax)
  40689c:	a4                   	movsb  %ds:(%rsi),%es:(%rdi)
  40689d:	02 00                	add    (%rax),%al
  40689f:	00 a9 fa ff ff 15    	add    %ch,0x15fffffa(%rcx)
  4068a5:	00 00                	add    %al,(%rax)
  4068a7:	00 00                	add    %al,(%rax)
  4068a9:	41 0e                	rex.B (bad) 
  4068ab:	10 86 02 43 0d 06    	adc    %al,0x60d4302(%rsi)
  4068b1:	50                   	push   %rax
  4068b2:	0c 07                	or     $0x7,%al
  4068b4:	08 00                	or     %al,(%rax)
  4068b6:	00 00                	add    %al,(%rax)
  4068b8:	44 00 00             	add    %r8b,(%rax)
  4068bb:	00 c4                	add    %al,%ah
  4068bd:	02 00                	add    (%rax),%al
  4068bf:	00 a0 fa ff ff 65    	add    %ah,0x65fffffa(%rax)
  4068c5:	00 00                	add    %al,(%rax)
  4068c7:	00 00                	add    %al,(%rax)
  4068c9:	42 0e                	rex.X (bad) 
  4068cb:	10 8f 02 42 0e 18    	adc    %cl,0x180e4202(%rdi)
  4068d1:	8e 03                	mov    (%rbx),%es
  4068d3:	45 0e                	rex.RB (bad) 
  4068d5:	20 8d 04 42 0e 28    	and    %cl,0x280e4204(%rbp)
  4068db:	8c 05 48 0e 30 86    	mov    %es,-0x79cff1b8(%rip)        # ffffffff86707729 <_end+0xffffffff86100261>
  4068e1:	06                   	(bad)  
  4068e2:	48 0e                	rex.W (bad) 
  4068e4:	38 83 07 4f 0e 40    	cmp    %al,0x400e4f07(%rbx)
  4068ea:	70 0e                	jo     4068fa <_IO_stdin_used+0x51a>
  4068ec:	38 41 0e             	cmp    %al,0xe(%rcx)
  4068ef:	30 41 0e             	xor    %al,0xe(%rcx)
  4068f2:	28 42 0e             	sub    %al,0xe(%rdx)
  4068f5:	20 42 0e             	and    %al,0xe(%rdx)
  4068f8:	18 42 0e             	sbb    %al,0xe(%rdx)
  4068fb:	10 42 0e             	adc    %al,0xe(%rdx)
  4068fe:	08 00                	or     %al,(%rax)
  406900:	14 00                	adc    $0x0,%al
  406902:	00 00                	add    %al,(%rax)
  406904:	0c 03                	or     $0x3,%al
  406906:	00 00                	add    %al,(%rax)
  406908:	c8 fa ff ff          	enterq $0xfffa,$0xff
  40690c:	02 00                	add    (%rax),%al
	...

0000000000406918 <__FRAME_END__>:
  406918:	00 00                	add    %al,(%rax)
	...

Disassembly of section .init_array:

0000000000606e10 <__frame_dummy_init_array_entry>:
  606e10:	60                   	(bad)  
  606e11:	06                   	(bad)  
  606e12:	40 00 00             	add    %al,(%rax)
  606e15:	00 00                	add    %al,(%rax)
	...

Disassembly of section .fini_array:

0000000000606e18 <__do_global_dtors_aux_fini_array_entry>:
  606e18:	40 06                	rex (bad) 
  606e1a:	40 00 00             	add    %al,(%rax)
  606e1d:	00 00                	add    %al,(%rax)
	...

Disassembly of section .jcr:

0000000000606e20 <__JCR_END__>:
	...

Disassembly of section .dynamic:

0000000000606e28 <_DYNAMIC>:
  606e28:	01 00                	add    %eax,(%rax)
  606e2a:	00 00                	add    %al,(%rax)
  606e2c:	00 00                	add    %al,(%rax)
  606e2e:	00 00                	add    %al,(%rax)
  606e30:	01 00                	add    %eax,(%rax)
  606e32:	00 00                	add    %al,(%rax)
  606e34:	00 00                	add    %al,(%rax)
  606e36:	00 00                	add    %al,(%rax)
  606e38:	0c 00                	or     $0x0,%al
  606e3a:	00 00                	add    %al,(%rax)
  606e3c:	00 00                	add    %al,(%rax)
  606e3e:	00 00                	add    %al,(%rax)
  606e40:	e8 04 40 00 00       	callq  60ae49 <_end+0x3981>
  606e45:	00 00                	add    %al,(%rax)
  606e47:	00 0d 00 00 00 00    	add    %cl,0x0(%rip)        # 606e4d <_DYNAMIC+0x25>
  606e4d:	00 00                	add    %al,(%rax)
  606e4f:	00 d4                	add    %dl,%ah
  606e51:	63 40 00             	movslq 0x0(%rax),%eax
  606e54:	00 00                	add    %al,(%rax)
  606e56:	00 00                	add    %al,(%rax)
  606e58:	19 00                	sbb    %eax,(%rax)
  606e5a:	00 00                	add    %al,(%rax)
  606e5c:	00 00                	add    %al,(%rax)
  606e5e:	00 00                	add    %al,(%rax)
  606e60:	10 6e 60             	adc    %ch,0x60(%rsi)
  606e63:	00 00                	add    %al,(%rax)
  606e65:	00 00                	add    %al,(%rax)
  606e67:	00 1b                	add    %bl,(%rbx)
  606e69:	00 00                	add    %al,(%rax)
  606e6b:	00 00                	add    %al,(%rax)
  606e6d:	00 00                	add    %al,(%rax)
  606e6f:	00 08                	add    %cl,(%rax)
  606e71:	00 00                	add    %al,(%rax)
  606e73:	00 00                	add    %al,(%rax)
  606e75:	00 00                	add    %al,(%rax)
  606e77:	00 1a                	add    %bl,(%rdx)
  606e79:	00 00                	add    %al,(%rax)
  606e7b:	00 00                	add    %al,(%rax)
  606e7d:	00 00                	add    %al,(%rax)
  606e7f:	00 18                	add    %bl,(%rax)
  606e81:	6e                   	outsb  %ds:(%rsi),(%dx)
  606e82:	60                   	(bad)  
  606e83:	00 00                	add    %al,(%rax)
  606e85:	00 00                	add    %al,(%rax)
  606e87:	00 1c 00             	add    %bl,(%rax,%rax,1)
  606e8a:	00 00                	add    %al,(%rax)
  606e8c:	00 00                	add    %al,(%rax)
  606e8e:	00 00                	add    %al,(%rax)
  606e90:	08 00                	or     %al,(%rax)
  606e92:	00 00                	add    %al,(%rax)
  606e94:	00 00                	add    %al,(%rax)
  606e96:	00 00                	add    %al,(%rax)
  606e98:	f5                   	cmc    
  606e99:	fe                   	(bad)  
  606e9a:	ff 6f 00             	ljmpq  *0x0(%rdi)
  606e9d:	00 00                	add    %al,(%rax)
  606e9f:	00 98 02 40 00 00    	add    %bl,0x4002(%rax)
  606ea5:	00 00                	add    %al,(%rax)
  606ea7:	00 05 00 00 00 00    	add    %al,0x0(%rip)        # 606ead <_DYNAMIC+0x85>
  606ead:	00 00                	add    %al,(%rax)
  606eaf:	00 78 03             	add    %bh,0x3(%rax)
  606eb2:	40 00 00             	add    %al,(%rax)
  606eb5:	00 00                	add    %al,(%rax)
  606eb7:	00 06                	add    %al,(%rsi)
  606eb9:	00 00                	add    %al,(%rax)
  606ebb:	00 00                	add    %al,(%rax)
  606ebd:	00 00                	add    %al,(%rax)
  606ebf:	00 b8 02 40 00 00    	add    %bh,0x4002(%rax)
  606ec5:	00 00                	add    %al,(%rax)
  606ec7:	00 0a                	add    %cl,(%rdx)
  606ec9:	00 00                	add    %al,(%rax)
  606ecb:	00 00                	add    %al,(%rax)
  606ecd:	00 00                	add    %al,(%rax)
  606ecf:	00 6e 00             	add    %ch,0x0(%rsi)
  606ed2:	00 00                	add    %al,(%rax)
  606ed4:	00 00                	add    %al,(%rax)
  606ed6:	00 00                	add    %al,(%rax)
  606ed8:	0b 00                	or     (%rax),%eax
  606eda:	00 00                	add    %al,(%rax)
  606edc:	00 00                	add    %al,(%rax)
  606ede:	00 00                	add    %al,(%rax)
  606ee0:	18 00                	sbb    %al,(%rax)
  606ee2:	00 00                	add    %al,(%rax)
  606ee4:	00 00                	add    %al,(%rax)
  606ee6:	00 00                	add    %al,(%rax)
  606ee8:	15 00 00 00 00       	adc    $0x0,%eax
	...
  606ef5:	00 00                	add    %al,(%rax)
  606ef7:	00 03                	add    %al,(%rbx)
	...
  606f01:	70 60                	jo     606f63 <_DYNAMIC+0x13b>
  606f03:	00 00                	add    %al,(%rax)
  606f05:	00 00                	add    %al,(%rax)
  606f07:	00 02                	add    %al,(%rdx)
  606f09:	00 00                	add    %al,(%rax)
  606f0b:	00 00                	add    %al,(%rax)
  606f0d:	00 00                	add    %al,(%rax)
  606f0f:	00 a8 00 00 00 00    	add    %ch,0x0(%rax)
  606f15:	00 00                	add    %al,(%rax)
  606f17:	00 14 00             	add    %dl,(%rax,%rax,1)
  606f1a:	00 00                	add    %al,(%rax)
  606f1c:	00 00                	add    %al,(%rax)
  606f1e:	00 00                	add    %al,(%rax)
  606f20:	07                   	(bad)  
  606f21:	00 00                	add    %al,(%rax)
  606f23:	00 00                	add    %al,(%rax)
  606f25:	00 00                	add    %al,(%rax)
  606f27:	00 17                	add    %dl,(%rdi)
  606f29:	00 00                	add    %al,(%rax)
  606f2b:	00 00                	add    %al,(%rax)
  606f2d:	00 00                	add    %al,(%rax)
  606f2f:	00 40 04             	add    %al,0x4(%rax)
  606f32:	40 00 00             	add    %al,(%rax)
  606f35:	00 00                	add    %al,(%rax)
  606f37:	00 07                	add    %al,(%rdi)
  606f39:	00 00                	add    %al,(%rax)
  606f3b:	00 00                	add    %al,(%rax)
  606f3d:	00 00                	add    %al,(%rax)
  606f3f:	00 28                	add    %ch,(%rax)
  606f41:	04 40                	add    $0x40,%al
  606f43:	00 00                	add    %al,(%rax)
  606f45:	00 00                	add    %al,(%rax)
  606f47:	00 08                	add    %cl,(%rax)
  606f49:	00 00                	add    %al,(%rax)
  606f4b:	00 00                	add    %al,(%rax)
  606f4d:	00 00                	add    %al,(%rax)
  606f4f:	00 18                	add    %bl,(%rax)
  606f51:	00 00                	add    %al,(%rax)
  606f53:	00 00                	add    %al,(%rax)
  606f55:	00 00                	add    %al,(%rax)
  606f57:	00 09                	add    %cl,(%rcx)
  606f59:	00 00                	add    %al,(%rax)
  606f5b:	00 00                	add    %al,(%rax)
  606f5d:	00 00                	add    %al,(%rax)
  606f5f:	00 18                	add    %bl,(%rax)
  606f61:	00 00                	add    %al,(%rax)
  606f63:	00 00                	add    %al,(%rax)
  606f65:	00 00                	add    %al,(%rax)
  606f67:	00 fe                	add    %bh,%dh
  606f69:	ff                   	(bad)  
  606f6a:	ff 6f 00             	ljmpq  *0x0(%rdi)
  606f6d:	00 00                	add    %al,(%rax)
  606f6f:	00 f8                	add    %bh,%al
  606f71:	03 40 00             	add    0x0(%rax),%eax
  606f74:	00 00                	add    %al,(%rax)
  606f76:	00 00                	add    %al,(%rax)
  606f78:	ff                   	(bad)  
  606f79:	ff                   	(bad)  
  606f7a:	ff 6f 00             	ljmpq  *0x0(%rdi)
  606f7d:	00 00                	add    %al,(%rax)
  606f7f:	00 01                	add    %al,(%rcx)
  606f81:	00 00                	add    %al,(%rax)
  606f83:	00 00                	add    %al,(%rax)
  606f85:	00 00                	add    %al,(%rax)
  606f87:	00 f0                	add    %dh,%al
  606f89:	ff                   	(bad)  
  606f8a:	ff 6f 00             	ljmpq  *0x0(%rdi)
  606f8d:	00 00                	add    %al,(%rax)
  606f8f:	00 e6                	add    %ah,%dh
  606f91:	03 40 00             	add    0x0(%rax),%eax
	...

Disassembly of section .got:

0000000000606ff8 <.got>:
	...

Disassembly of section .got.plt:

0000000000607000 <_GLOBAL_OFFSET_TABLE_>:
  607000:	28 6e 60             	sub    %ch,0x60(%rsi)
	...
  607017:	00 26                	add    %ah,(%rsi)
  607019:	05 40 00 00 00       	add    $0x40,%eax
  60701e:	00 00                	add    %al,(%rax)
  607020:	36 05 40 00 00 00    	ss add $0x40,%eax
  607026:	00 00                	add    %al,(%rax)
  607028:	46 05 40 00 00 00    	rex.RX add $0x40,%eax
  60702e:	00 00                	add    %al,(%rax)
  607030:	56                   	push   %rsi
  607031:	05 40 00 00 00       	add    $0x40,%eax
  607036:	00 00                	add    %al,(%rax)
  607038:	66 05 40 00          	add    $0x40,%ax
  60703c:	00 00                	add    %al,(%rax)
  60703e:	00 00                	add    %al,(%rax)
  607040:	76 05                	jbe    607047 <_GLOBAL_OFFSET_TABLE_+0x47>
  607042:	40 00 00             	add    %al,(%rax)
  607045:	00 00                	add    %al,(%rax)
  607047:	00 86 05 40 00 00    	add    %al,0x4005(%rsi)
  60704d:	00 00                	add    %al,(%rax)
	...

Disassembly of section .data:

0000000000607080 <__data_start>:
	...

0000000000607088 <__dso_handle>:
	...

00000000006070c0 <INPUT>:
  6070c0:	00 11                	add    %dl,(%rcx)
  6070c2:	22 33                	and    (%rbx),%dh
  6070c4:	44 55                	rex.R push %rbp
  6070c6:	66 77 88             	data16 ja 607051 <_GLOBAL_OFFSET_TABLE_+0x51>
  6070c9:	99                   	cltd   
  6070ca:	aa                   	stos   %al,%es:(%rdi)
  6070cb:	bb cc dd ee ff       	mov    $0xffeeddcc,%ebx
  6070d0:	11 11                	adc    %edx,(%rcx)
  6070d2:	11 11                	adc    %edx,(%rcx)
  6070d4:	11 11                	adc    %edx,(%rcx)
  6070d6:	11 11                	adc    %edx,(%rcx)
  6070d8:	11 11                	adc    %edx,(%rcx)
  6070da:	11 11                	adc    %edx,(%rcx)
  6070dc:	11 11                	adc    %edx,(%rcx)
  6070de:	11 11                	adc    %edx,(%rcx)
  6070e0:	22 22                	and    (%rdx),%ah
  6070e2:	22 22                	and    (%rdx),%ah
  6070e4:	22 22                	and    (%rdx),%ah
  6070e6:	22 22                	and    (%rdx),%ah
  6070e8:	22 22                	and    (%rdx),%ah
  6070ea:	22 22                	and    (%rdx),%ah
  6070ec:	22 22                	and    (%rdx),%ah
  6070ee:	22 22                	and    (%rdx),%ah
  6070f0:	33 33                	xor    (%rbx),%esi
  6070f2:	33 33                	xor    (%rbx),%esi
  6070f4:	33 33                	xor    (%rbx),%esi
  6070f6:	33 33                	xor    (%rbx),%esi
  6070f8:	33 33                	xor    (%rbx),%esi
  6070fa:	33 33                	xor    (%rbx),%esi
  6070fc:	33 33                	xor    (%rbx),%esi
  6070fe:	33 33                	xor    (%rbx),%esi
  607100:	44                   	rex.R
  607101:	44                   	rex.R
  607102:	44                   	rex.R
  607103:	44                   	rex.R
  607104:	44                   	rex.R
  607105:	44                   	rex.R
  607106:	44                   	rex.R
  607107:	44                   	rex.R
  607108:	44                   	rex.R
  607109:	44                   	rex.R
  60710a:	44                   	rex.R
  60710b:	44                   	rex.R
  60710c:	44                   	rex.R
  60710d:	44                   	rex.R
  60710e:	44                   	rex.R
  60710f:	44 55                	rex.R push %rbp
  607111:	55                   	push   %rbp
  607112:	55                   	push   %rbp
  607113:	55                   	push   %rbp
  607114:	55                   	push   %rbp
  607115:	55                   	push   %rbp
  607116:	55                   	push   %rbp
  607117:	55                   	push   %rbp
  607118:	55                   	push   %rbp
  607119:	55                   	push   %rbp
  60711a:	55                   	push   %rbp
  60711b:	55                   	push   %rbp
  60711c:	55                   	push   %rbp
  60711d:	55                   	push   %rbp
  60711e:	55                   	push   %rbp
  60711f:	55                   	push   %rbp
  607120:	66 66 66 66 66 66 66 	data16 data16 data16 data16 data16 data16 data16 data16 data16 data16 data16 data16 data16 data16
  607127:	66 66 66 66 66 66 66 
  60712e:	66 66 77 77          	data16 data16 ja 6071a9 <INPUT+0xe9>
  607132:	77 77                	ja     6071ab <INPUT+0xeb>
  607134:	77 77                	ja     6071ad <INPUT+0xed>
  607136:	77 77                	ja     6071af <INPUT+0xef>
  607138:	77 77                	ja     6071b1 <INPUT+0xf1>
  60713a:	77 77                	ja     6071b3 <INPUT+0xf3>
  60713c:	77 77                	ja     6071b5 <INPUT+0xf5>
  60713e:	77 77                	ja     6071b7 <INPUT+0xf7>
  607140:	88 88 88 88 88 88    	mov    %cl,-0x77777778(%rax)
  607146:	88 88 88 88 88 88    	mov    %cl,-0x77777778(%rax)
  60714c:	88 88 88 88 99 99    	mov    %cl,-0x66667778(%rax)
  607152:	99                   	cltd   
  607153:	99                   	cltd   
  607154:	99                   	cltd   
  607155:	99                   	cltd   
  607156:	99                   	cltd   
  607157:	99                   	cltd   
  607158:	99                   	cltd   
  607159:	99                   	cltd   
  60715a:	99                   	cltd   
  60715b:	99                   	cltd   
  60715c:	99                   	cltd   
  60715d:	99                   	cltd   
  60715e:	99                   	cltd   
  60715f:	99                   	cltd   
  607160:	aa                   	stos   %al,%es:(%rdi)
  607161:	aa                   	stos   %al,%es:(%rdi)
  607162:	aa                   	stos   %al,%es:(%rdi)
  607163:	aa                   	stos   %al,%es:(%rdi)
  607164:	aa                   	stos   %al,%es:(%rdi)
  607165:	aa                   	stos   %al,%es:(%rdi)
  607166:	aa                   	stos   %al,%es:(%rdi)
  607167:	aa                   	stos   %al,%es:(%rdi)
  607168:	aa                   	stos   %al,%es:(%rdi)
  607169:	aa                   	stos   %al,%es:(%rdi)
  60716a:	aa                   	stos   %al,%es:(%rdi)
  60716b:	aa                   	stos   %al,%es:(%rdi)
  60716c:	aa                   	stos   %al,%es:(%rdi)
  60716d:	aa                   	stos   %al,%es:(%rdi)
  60716e:	aa                   	stos   %al,%es:(%rdi)
  60716f:	aa                   	stos   %al,%es:(%rdi)
  607170:	bb bb bb bb bb       	mov    $0xbbbbbbbb,%ebx
  607175:	bb bb bb bb bb       	mov    $0xbbbbbbbb,%ebx
  60717a:	bb bb bb bb bb       	mov    $0xbbbbbbbb,%ebx
  60717f:	bb cc cc cc cc       	mov    $0xcccccccc,%ebx
  607184:	cc                   	int3   
  607185:	cc                   	int3   
  607186:	cc                   	int3   
  607187:	cc                   	int3   
  607188:	cc                   	int3   
  607189:	cc                   	int3   
  60718a:	cc                   	int3   
  60718b:	cc                   	int3   
  60718c:	cc                   	int3   
  60718d:	cc                   	int3   
  60718e:	cc                   	int3   
  60718f:	cc                   	int3   
  607190:	dd dd                	fstp   %st(5)
  607192:	dd dd                	fstp   %st(5)
  607194:	dd dd                	fstp   %st(5)
  607196:	dd dd                	fstp   %st(5)
  607198:	dd dd                	fstp   %st(5)
  60719a:	dd dd                	fstp   %st(5)
  60719c:	dd dd                	fstp   %st(5)
  60719e:	dd dd                	fstp   %st(5)
  6071a0:	ee                   	out    %al,(%dx)
  6071a1:	ee                   	out    %al,(%dx)
  6071a2:	ee                   	out    %al,(%dx)
  6071a3:	ee                   	out    %al,(%dx)
  6071a4:	ee                   	out    %al,(%dx)
  6071a5:	ee                   	out    %al,(%dx)
  6071a6:	ee                   	out    %al,(%dx)
  6071a7:	ee                   	out    %al,(%dx)
  6071a8:	ee                   	out    %al,(%dx)
  6071a9:	ee                   	out    %al,(%dx)
  6071aa:	ee                   	out    %al,(%dx)
  6071ab:	ee                   	out    %al,(%dx)
  6071ac:	ee                   	out    %al,(%dx)
  6071ad:	ee                   	out    %al,(%dx)
  6071ae:	ee                   	out    %al,(%dx)
  6071af:	ee                   	out    %al,(%dx)
  6071b0:	ff                   	(bad)  
  6071b1:	ff                   	(bad)  
  6071b2:	ff                   	(bad)  
  6071b3:	ff                   	(bad)  
  6071b4:	ff                   	(bad)  
  6071b5:	ff                   	(bad)  
  6071b6:	ff                   	(bad)  
  6071b7:	ff                   	(bad)  
  6071b8:	ff                   	(bad)  
  6071b9:	ff                   	(bad)  
  6071ba:	ff                   	(bad)  
  6071bb:	ff                   	(bad)  
  6071bc:	ff                   	(bad)  
  6071bd:	ff                   	(bad)  
  6071be:	ff                   	(bad)  
  6071bf:	ff 00                	incl   (%rax)
	...
  6071cd:	00 00                	add    %al,(%rax)
  6071cf:	00 11                	add    %dl,(%rcx)
  6071d1:	11 11                	adc    %edx,(%rcx)
  6071d3:	11 11                	adc    %edx,(%rcx)
  6071d5:	11 11                	adc    %edx,(%rcx)
  6071d7:	11 11                	adc    %edx,(%rcx)
  6071d9:	11 11                	adc    %edx,(%rcx)
  6071db:	11 11                	adc    %edx,(%rcx)
  6071dd:	11 11                	adc    %edx,(%rcx)
  6071df:	11 22                	adc    %esp,(%rdx)
  6071e1:	22 22                	and    (%rdx),%ah
  6071e3:	22 22                	and    (%rdx),%ah
  6071e5:	22 22                	and    (%rdx),%ah
  6071e7:	22 22                	and    (%rdx),%ah
  6071e9:	22 22                	and    (%rdx),%ah
  6071eb:	22 22                	and    (%rdx),%ah
  6071ed:	22 22                	and    (%rdx),%ah
  6071ef:	22 33                	and    (%rbx),%dh
  6071f1:	33 33                	xor    (%rbx),%esi
  6071f3:	33 33                	xor    (%rbx),%esi
  6071f5:	33 33                	xor    (%rbx),%esi
  6071f7:	33 33                	xor    (%rbx),%esi
  6071f9:	33 33                	xor    (%rbx),%esi
  6071fb:	33 33                	xor    (%rbx),%esi
  6071fd:	33 33                	xor    (%rbx),%esi
  6071ff:	33 44 44 44          	xor    0x44(%rsp,%rax,2),%eax
  607203:	44                   	rex.R
  607204:	44                   	rex.R
  607205:	44                   	rex.R
  607206:	44                   	rex.R
  607207:	44                   	rex.R
  607208:	44                   	rex.R
  607209:	44                   	rex.R
  60720a:	44                   	rex.R
  60720b:	44                   	rex.R
  60720c:	44                   	rex.R
  60720d:	44                   	rex.R
  60720e:	44                   	rex.R
  60720f:	44 55                	rex.R push %rbp
  607211:	55                   	push   %rbp
  607212:	55                   	push   %rbp
  607213:	55                   	push   %rbp
  607214:	55                   	push   %rbp
  607215:	55                   	push   %rbp
  607216:	55                   	push   %rbp
  607217:	55                   	push   %rbp
  607218:	55                   	push   %rbp
  607219:	55                   	push   %rbp
  60721a:	55                   	push   %rbp
  60721b:	55                   	push   %rbp
  60721c:	55                   	push   %rbp
  60721d:	55                   	push   %rbp
  60721e:	55                   	push   %rbp
  60721f:	55                   	push   %rbp
  607220:	66 66 66 66 66 66 66 	data16 data16 data16 data16 data16 data16 data16 data16 data16 data16 data16 data16 data16 data16
  607227:	66 66 66 66 66 66 66 
  60722e:	66 66 77 77          	data16 data16 ja 6072a9 <INPUT+0x1e9>
  607232:	77 77                	ja     6072ab <INPUT+0x1eb>
  607234:	77 77                	ja     6072ad <INPUT+0x1ed>
  607236:	77 77                	ja     6072af <INPUT+0x1ef>
  607238:	77 77                	ja     6072b1 <INPUT+0x1f1>
  60723a:	77 77                	ja     6072b3 <INPUT+0x1f3>
  60723c:	77 77                	ja     6072b5 <INPUT+0x1f5>
  60723e:	77 77                	ja     6072b7 <INPUT+0x1f7>
  607240:	88 88 88 88 88 88    	mov    %cl,-0x77777778(%rax)
  607246:	88 88 88 88 88 88    	mov    %cl,-0x77777778(%rax)
  60724c:	88 88 88 88 99 99    	mov    %cl,-0x66667778(%rax)
  607252:	99                   	cltd   
  607253:	99                   	cltd   
  607254:	99                   	cltd   
  607255:	99                   	cltd   
  607256:	99                   	cltd   
  607257:	99                   	cltd   
  607258:	99                   	cltd   
  607259:	99                   	cltd   
  60725a:	99                   	cltd   
  60725b:	99                   	cltd   
  60725c:	99                   	cltd   
  60725d:	99                   	cltd   
  60725e:	99                   	cltd   
  60725f:	99                   	cltd   
  607260:	aa                   	stos   %al,%es:(%rdi)
  607261:	aa                   	stos   %al,%es:(%rdi)
  607262:	aa                   	stos   %al,%es:(%rdi)
  607263:	aa                   	stos   %al,%es:(%rdi)
  607264:	aa                   	stos   %al,%es:(%rdi)
  607265:	aa                   	stos   %al,%es:(%rdi)
  607266:	aa                   	stos   %al,%es:(%rdi)
  607267:	aa                   	stos   %al,%es:(%rdi)
  607268:	aa                   	stos   %al,%es:(%rdi)
  607269:	aa                   	stos   %al,%es:(%rdi)
  60726a:	aa                   	stos   %al,%es:(%rdi)
  60726b:	aa                   	stos   %al,%es:(%rdi)
  60726c:	aa                   	stos   %al,%es:(%rdi)
  60726d:	aa                   	stos   %al,%es:(%rdi)
  60726e:	aa                   	stos   %al,%es:(%rdi)
  60726f:	aa                   	stos   %al,%es:(%rdi)
  607270:	bb bb bb bb bb       	mov    $0xbbbbbbbb,%ebx
  607275:	bb bb bb bb bb       	mov    $0xbbbbbbbb,%ebx
  60727a:	bb bb bb bb bb       	mov    $0xbbbbbbbb,%ebx
  60727f:	bb cc cc cc cc       	mov    $0xcccccccc,%ebx
  607284:	cc                   	int3   
  607285:	cc                   	int3   
  607286:	cc                   	int3   
  607287:	cc                   	int3   
  607288:	cc                   	int3   
  607289:	cc                   	int3   
  60728a:	cc                   	int3   
  60728b:	cc                   	int3   
  60728c:	cc                   	int3   
  60728d:	cc                   	int3   
  60728e:	cc                   	int3   
  60728f:	cc                   	int3   
  607290:	dd dd                	fstp   %st(5)
  607292:	dd dd                	fstp   %st(5)
  607294:	dd dd                	fstp   %st(5)
  607296:	dd dd                	fstp   %st(5)
  607298:	dd dd                	fstp   %st(5)
  60729a:	dd dd                	fstp   %st(5)
  60729c:	dd dd                	fstp   %st(5)
  60729e:	dd dd                	fstp   %st(5)
  6072a0:	ee                   	out    %al,(%dx)
  6072a1:	ee                   	out    %al,(%dx)
  6072a2:	ee                   	out    %al,(%dx)
  6072a3:	ee                   	out    %al,(%dx)
  6072a4:	ee                   	out    %al,(%dx)
  6072a5:	ee                   	out    %al,(%dx)
  6072a6:	ee                   	out    %al,(%dx)
  6072a7:	ee                   	out    %al,(%dx)
  6072a8:	ee                   	out    %al,(%dx)
  6072a9:	ee                   	out    %al,(%dx)
  6072aa:	ee                   	out    %al,(%dx)
  6072ab:	ee                   	out    %al,(%dx)
  6072ac:	ee                   	out    %al,(%dx)
  6072ad:	ee                   	out    %al,(%dx)
  6072ae:	ee                   	out    %al,(%dx)
  6072af:	ee                   	out    %al,(%dx)
  6072b0:	ff                   	(bad)  
  6072b1:	ff                   	(bad)  
  6072b2:	ff                   	(bad)  
  6072b3:	ff                   	(bad)  
  6072b4:	ff                   	(bad)  
  6072b5:	ff                   	(bad)  
  6072b6:	ff                   	(bad)  
  6072b7:	ff                   	(bad)  
  6072b8:	ff                   	(bad)  
  6072b9:	ff                   	(bad)  
  6072ba:	ff                   	(bad)  
  6072bb:	ff                   	(bad)  
  6072bc:	ff                   	(bad)  
  6072bd:	ff                   	(bad)  
  6072be:	ff                   	(bad)  
  6072bf:	ff 00                	incl   (%rax)
	...
  6072cd:	00 00                	add    %al,(%rax)
  6072cf:	00 11                	add    %dl,(%rcx)
  6072d1:	11 11                	adc    %edx,(%rcx)
  6072d3:	11 11                	adc    %edx,(%rcx)
  6072d5:	11 11                	adc    %edx,(%rcx)
  6072d7:	11 11                	adc    %edx,(%rcx)
  6072d9:	11 11                	adc    %edx,(%rcx)
  6072db:	11 11                	adc    %edx,(%rcx)
  6072dd:	11 11                	adc    %edx,(%rcx)
  6072df:	11 22                	adc    %esp,(%rdx)
  6072e1:	22 22                	and    (%rdx),%ah
  6072e3:	22 22                	and    (%rdx),%ah
  6072e5:	22 22                	and    (%rdx),%ah
  6072e7:	22 22                	and    (%rdx),%ah
  6072e9:	22 22                	and    (%rdx),%ah
  6072eb:	22 22                	and    (%rdx),%ah
  6072ed:	22 22                	and    (%rdx),%ah
  6072ef:	22 33                	and    (%rbx),%dh
  6072f1:	33 33                	xor    (%rbx),%esi
  6072f3:	33 33                	xor    (%rbx),%esi
  6072f5:	33 33                	xor    (%rbx),%esi
  6072f7:	33 33                	xor    (%rbx),%esi
  6072f9:	33 33                	xor    (%rbx),%esi
  6072fb:	33 33                	xor    (%rbx),%esi
  6072fd:	33 33                	xor    (%rbx),%esi
  6072ff:	33 44 44 44          	xor    0x44(%rsp,%rax,2),%eax
  607303:	44                   	rex.R
  607304:	44                   	rex.R
  607305:	44                   	rex.R
  607306:	44                   	rex.R
  607307:	44                   	rex.R
  607308:	44                   	rex.R
  607309:	44                   	rex.R
  60730a:	44                   	rex.R
  60730b:	44                   	rex.R
  60730c:	44                   	rex.R
  60730d:	44                   	rex.R
  60730e:	44                   	rex.R
  60730f:	44 55                	rex.R push %rbp
  607311:	55                   	push   %rbp
  607312:	55                   	push   %rbp
  607313:	55                   	push   %rbp
  607314:	55                   	push   %rbp
  607315:	55                   	push   %rbp
  607316:	55                   	push   %rbp
  607317:	55                   	push   %rbp
  607318:	55                   	push   %rbp
  607319:	55                   	push   %rbp
  60731a:	55                   	push   %rbp
  60731b:	55                   	push   %rbp
  60731c:	55                   	push   %rbp
  60731d:	55                   	push   %rbp
  60731e:	55                   	push   %rbp
  60731f:	55                   	push   %rbp
  607320:	66 66 66 66 66 66 66 	data16 data16 data16 data16 data16 data16 data16 data16 data16 data16 data16 data16 data16 data16
  607327:	66 66 66 66 66 66 66 
  60732e:	66 66 77 77          	data16 data16 ja 6073a9 <INPUT+0x2e9>
  607332:	77 77                	ja     6073ab <INPUT+0x2eb>
  607334:	77 77                	ja     6073ad <INPUT+0x2ed>
  607336:	77 77                	ja     6073af <INPUT+0x2ef>
  607338:	77 77                	ja     6073b1 <INPUT+0x2f1>
  60733a:	77 77                	ja     6073b3 <INPUT+0x2f3>
  60733c:	77 77                	ja     6073b5 <INPUT+0x2f5>
  60733e:	77 77                	ja     6073b7 <INPUT+0x2f7>
  607340:	88 88 88 88 88 88    	mov    %cl,-0x77777778(%rax)
  607346:	88 88 88 88 88 88    	mov    %cl,-0x77777778(%rax)
  60734c:	88 88 88 88 99 99    	mov    %cl,-0x66667778(%rax)
  607352:	99                   	cltd   
  607353:	99                   	cltd   
  607354:	99                   	cltd   
  607355:	99                   	cltd   
  607356:	99                   	cltd   
  607357:	99                   	cltd   
  607358:	99                   	cltd   
  607359:	99                   	cltd   
  60735a:	99                   	cltd   
  60735b:	99                   	cltd   
  60735c:	99                   	cltd   
  60735d:	99                   	cltd   
  60735e:	99                   	cltd   
  60735f:	99                   	cltd   
  607360:	aa                   	stos   %al,%es:(%rdi)
  607361:	aa                   	stos   %al,%es:(%rdi)
  607362:	aa                   	stos   %al,%es:(%rdi)
  607363:	aa                   	stos   %al,%es:(%rdi)
  607364:	aa                   	stos   %al,%es:(%rdi)
  607365:	aa                   	stos   %al,%es:(%rdi)
  607366:	aa                   	stos   %al,%es:(%rdi)
  607367:	aa                   	stos   %al,%es:(%rdi)
  607368:	aa                   	stos   %al,%es:(%rdi)
  607369:	aa                   	stos   %al,%es:(%rdi)
  60736a:	aa                   	stos   %al,%es:(%rdi)
  60736b:	aa                   	stos   %al,%es:(%rdi)
  60736c:	aa                   	stos   %al,%es:(%rdi)
  60736d:	aa                   	stos   %al,%es:(%rdi)
  60736e:	aa                   	stos   %al,%es:(%rdi)
  60736f:	aa                   	stos   %al,%es:(%rdi)
  607370:	bb bb bb bb bb       	mov    $0xbbbbbbbb,%ebx
  607375:	bb bb bb bb bb       	mov    $0xbbbbbbbb,%ebx
  60737a:	bb bb bb bb bb       	mov    $0xbbbbbbbb,%ebx
  60737f:	bb cc cc cc cc       	mov    $0xcccccccc,%ebx
  607384:	cc                   	int3   
  607385:	cc                   	int3   
  607386:	cc                   	int3   
  607387:	cc                   	int3   
  607388:	cc                   	int3   
  607389:	cc                   	int3   
  60738a:	cc                   	int3   
  60738b:	cc                   	int3   
  60738c:	cc                   	int3   
  60738d:	cc                   	int3   
  60738e:	cc                   	int3   
  60738f:	cc                   	int3   
  607390:	dd dd                	fstp   %st(5)
  607392:	dd dd                	fstp   %st(5)
  607394:	dd dd                	fstp   %st(5)
  607396:	dd dd                	fstp   %st(5)
  607398:	dd dd                	fstp   %st(5)
  60739a:	dd dd                	fstp   %st(5)
  60739c:	dd dd                	fstp   %st(5)
  60739e:	dd dd                	fstp   %st(5)
  6073a0:	ee                   	out    %al,(%dx)
  6073a1:	ee                   	out    %al,(%dx)
  6073a2:	ee                   	out    %al,(%dx)
  6073a3:	ee                   	out    %al,(%dx)
  6073a4:	ee                   	out    %al,(%dx)
  6073a5:	ee                   	out    %al,(%dx)
  6073a6:	ee                   	out    %al,(%dx)
  6073a7:	ee                   	out    %al,(%dx)
  6073a8:	ee                   	out    %al,(%dx)
  6073a9:	ee                   	out    %al,(%dx)
  6073aa:	ee                   	out    %al,(%dx)
  6073ab:	ee                   	out    %al,(%dx)
  6073ac:	ee                   	out    %al,(%dx)
  6073ad:	ee                   	out    %al,(%dx)
  6073ae:	ee                   	out    %al,(%dx)
  6073af:	ee                   	out    %al,(%dx)
  6073b0:	ff                   	(bad)  
  6073b1:	ff                   	(bad)  
  6073b2:	ff                   	(bad)  
  6073b3:	ff                   	(bad)  
  6073b4:	ff                   	(bad)  
  6073b5:	ff                   	(bad)  
  6073b6:	ff                   	(bad)  
  6073b7:	ff                   	(bad)  
  6073b8:	ff                   	(bad)  
  6073b9:	ff                   	(bad)  
  6073ba:	ff                   	(bad)  
  6073bb:	ff                   	(bad)  
  6073bc:	ff                   	(bad)  
  6073bd:	ff                   	(bad)  
  6073be:	ff                   	(bad)  
  6073bf:	ff 00                	incl   (%rax)
	...
  6073cd:	00 00                	add    %al,(%rax)
  6073cf:	00 11                	add    %dl,(%rcx)
  6073d1:	11 11                	adc    %edx,(%rcx)
  6073d3:	11 11                	adc    %edx,(%rcx)
  6073d5:	11 11                	adc    %edx,(%rcx)
  6073d7:	11 11                	adc    %edx,(%rcx)
  6073d9:	11 11                	adc    %edx,(%rcx)
  6073db:	11 11                	adc    %edx,(%rcx)
  6073dd:	11 11                	adc    %edx,(%rcx)
  6073df:	11 22                	adc    %esp,(%rdx)
  6073e1:	22 22                	and    (%rdx),%ah
  6073e3:	22 22                	and    (%rdx),%ah
  6073e5:	22 22                	and    (%rdx),%ah
  6073e7:	22 22                	and    (%rdx),%ah
  6073e9:	22 22                	and    (%rdx),%ah
  6073eb:	22 22                	and    (%rdx),%ah
  6073ed:	22 22                	and    (%rdx),%ah
  6073ef:	22 33                	and    (%rbx),%dh
  6073f1:	33 33                	xor    (%rbx),%esi
  6073f3:	33 33                	xor    (%rbx),%esi
  6073f5:	33 33                	xor    (%rbx),%esi
  6073f7:	33 33                	xor    (%rbx),%esi
  6073f9:	33 33                	xor    (%rbx),%esi
  6073fb:	33 33                	xor    (%rbx),%esi
  6073fd:	33 33                	xor    (%rbx),%esi
  6073ff:	33 44 44 44          	xor    0x44(%rsp,%rax,2),%eax
  607403:	44                   	rex.R
  607404:	44                   	rex.R
  607405:	44                   	rex.R
  607406:	44                   	rex.R
  607407:	44                   	rex.R
  607408:	44                   	rex.R
  607409:	44                   	rex.R
  60740a:	44                   	rex.R
  60740b:	44                   	rex.R
  60740c:	44                   	rex.R
  60740d:	44                   	rex.R
  60740e:	44                   	rex.R
  60740f:	44 55                	rex.R push %rbp
  607411:	55                   	push   %rbp
  607412:	55                   	push   %rbp
  607413:	55                   	push   %rbp
  607414:	55                   	push   %rbp
  607415:	55                   	push   %rbp
  607416:	55                   	push   %rbp
  607417:	55                   	push   %rbp
  607418:	55                   	push   %rbp
  607419:	55                   	push   %rbp
  60741a:	55                   	push   %rbp
  60741b:	55                   	push   %rbp
  60741c:	55                   	push   %rbp
  60741d:	55                   	push   %rbp
  60741e:	55                   	push   %rbp
  60741f:	55                   	push   %rbp
  607420:	66 66 66 66 66 66 66 	data16 data16 data16 data16 data16 data16 data16 data16 data16 data16 data16 data16 data16 data16
  607427:	66 66 66 66 66 66 66 
  60742e:	66 66 77 77          	data16 data16 ja 6074a9 <INPUT+0x3e9>
  607432:	77 77                	ja     6074ab <INPUT+0x3eb>
  607434:	77 77                	ja     6074ad <INPUT+0x3ed>
  607436:	77 77                	ja     6074af <INPUT+0x3ef>
  607438:	77 77                	ja     6074b1 <INPUT+0x3f1>
  60743a:	77 77                	ja     6074b3 <INPUT+0x3f3>
  60743c:	77 77                	ja     6074b5 <INPUT+0x3f5>
  60743e:	77 77                	ja     6074b7 <INPUT+0x3f7>
  607440:	88 88 88 88 88 88    	mov    %cl,-0x77777778(%rax)
  607446:	88 88 88 88 88 88    	mov    %cl,-0x77777778(%rax)
  60744c:	88 88 88 88 99 99    	mov    %cl,-0x66667778(%rax)
  607452:	99                   	cltd   
  607453:	99                   	cltd   
  607454:	99                   	cltd   
  607455:	99                   	cltd   
  607456:	99                   	cltd   
  607457:	99                   	cltd   
  607458:	99                   	cltd   
  607459:	99                   	cltd   
  60745a:	99                   	cltd   
  60745b:	99                   	cltd   
  60745c:	99                   	cltd   
  60745d:	99                   	cltd   
  60745e:	99                   	cltd   
  60745f:	99                   	cltd   
  607460:	aa                   	stos   %al,%es:(%rdi)
  607461:	aa                   	stos   %al,%es:(%rdi)
  607462:	aa                   	stos   %al,%es:(%rdi)
  607463:	aa                   	stos   %al,%es:(%rdi)
  607464:	aa                   	stos   %al,%es:(%rdi)
  607465:	aa                   	stos   %al,%es:(%rdi)
  607466:	aa                   	stos   %al,%es:(%rdi)
  607467:	aa                   	stos   %al,%es:(%rdi)
  607468:	aa                   	stos   %al,%es:(%rdi)
  607469:	aa                   	stos   %al,%es:(%rdi)
  60746a:	aa                   	stos   %al,%es:(%rdi)
  60746b:	aa                   	stos   %al,%es:(%rdi)
  60746c:	aa                   	stos   %al,%es:(%rdi)
  60746d:	aa                   	stos   %al,%es:(%rdi)
  60746e:	aa                   	stos   %al,%es:(%rdi)
  60746f:	aa                   	stos   %al,%es:(%rdi)
  607470:	bb bb bb bb bb       	mov    $0xbbbbbbbb,%ebx
  607475:	bb bb bb bb bb       	mov    $0xbbbbbbbb,%ebx
  60747a:	bb bb bb bb bb       	mov    $0xbbbbbbbb,%ebx
  60747f:	bb cc cc cc cc       	mov    $0xcccccccc,%ebx
  607484:	cc                   	int3   
  607485:	cc                   	int3   
  607486:	cc                   	int3   
  607487:	cc                   	int3   
  607488:	cc                   	int3   
  607489:	cc                   	int3   
  60748a:	cc                   	int3   
  60748b:	cc                   	int3   
  60748c:	cc                   	int3   
  60748d:	cc                   	int3   
  60748e:	cc                   	int3   
  60748f:	cc                   	int3   
  607490:	dd dd                	fstp   %st(5)
  607492:	dd dd                	fstp   %st(5)
  607494:	dd dd                	fstp   %st(5)
  607496:	dd dd                	fstp   %st(5)
  607498:	dd dd                	fstp   %st(5)
  60749a:	dd dd                	fstp   %st(5)
  60749c:	dd dd                	fstp   %st(5)
  60749e:	dd dd                	fstp   %st(5)
  6074a0:	ee                   	out    %al,(%dx)
  6074a1:	ee                   	out    %al,(%dx)
  6074a2:	ee                   	out    %al,(%dx)
  6074a3:	ee                   	out    %al,(%dx)
  6074a4:	ee                   	out    %al,(%dx)
  6074a5:	ee                   	out    %al,(%dx)
  6074a6:	ee                   	out    %al,(%dx)
  6074a7:	ee                   	out    %al,(%dx)
  6074a8:	ee                   	out    %al,(%dx)
  6074a9:	ee                   	out    %al,(%dx)
  6074aa:	ee                   	out    %al,(%dx)
  6074ab:	ee                   	out    %al,(%dx)
  6074ac:	ee                   	out    %al,(%dx)
  6074ad:	ee                   	out    %al,(%dx)
  6074ae:	ee                   	out    %al,(%dx)
  6074af:	ee                   	out    %al,(%dx)
  6074b0:	ff                   	(bad)  
  6074b1:	ff                   	(bad)  
  6074b2:	ff                   	(bad)  
  6074b3:	ff                   	(bad)  
  6074b4:	ff                   	(bad)  
  6074b5:	ff                   	(bad)  
  6074b6:	ff                   	(bad)  
  6074b7:	ff                   	(bad)  
  6074b8:	ff                   	(bad)  
  6074b9:	ff                   	(bad)  
  6074ba:	ff                   	(bad)  
  6074bb:	ff                   	(bad)  
  6074bc:	ff                   	(bad)  
  6074bd:	ff                   	(bad)  
  6074be:	ff                   	(bad)  
  6074bf:	ff                   	.byte 0xff

Disassembly of section .bss:

00000000006074c0 <__bss_start>:
	...

Disassembly of section .comment:

0000000000000000 <.comment>:
   0:	47                   	rex.RXB
   1:	43                   	rex.XB
   2:	43 3a 20             	rex.XB cmp (%r8),%spl
   5:	28 55 62             	sub    %dl,0x62(%rbp)
   8:	75 6e                	jne    78 <_init-0x400470>
   a:	74 75                	je     81 <_init-0x400467>
   c:	20 34 2e             	and    %dh,(%rsi,%rbp,1)
   f:	39 2e                	cmp    %ebp,(%rsi)
  11:	32 2d 31 30 75 62    	xor    0x62753031(%rip),%ch        # 62753048 <_end+0x6214bb80>
  17:	75 6e                	jne    87 <_init-0x400461>
  19:	74 75                	je     90 <_init-0x400458>
  1b:	31 33                	xor    %esi,(%rbx)
  1d:	29 20                	sub    %esp,(%rax)
  1f:	34 2e                	xor    $0x2e,%al
  21:	39 2e                	cmp    %ebp,(%rsi)
  23:	32 00                	xor    (%rax),%al
  25:	47                   	rex.RXB
  26:	43                   	rex.XB
  27:	43 3a 20             	rex.XB cmp (%r8),%spl
  2a:	28 55 62             	sub    %dl,0x62(%rbp)
  2d:	75 6e                	jne    9d <_init-0x40044b>
  2f:	74 75                	je     a6 <_init-0x400442>
  31:	20 34 2e             	and    %dh,(%rsi,%rbp,1)
  34:	39 2e                	cmp    %ebp,(%rsi)
  36:	32 2d 31 30 75 62    	xor    0x62753031(%rip),%ch        # 6275306d <_end+0x6214bba5>
  3c:	75 6e                	jne    ac <_init-0x40043c>
  3e:	74 75                	je     b5 <_init-0x400433>
  40:	31 31                	xor    %esi,(%rcx)
  42:	29 20                	sub    %esp,(%rax)
  44:	34 2e                	xor    $0x2e,%al
  46:	39 2e                	cmp    %ebp,(%rsi)
  48:	32 00                	xor    (%rax),%al
